
build/as3993.elf:     file format elf32-pic30

Disassembly of section .reset:

00000000 <.reset>:
   0:	00 02 04    	goto      0x200 <__resetPRI>
   2:	00 00 00 
Disassembly of section .text:

00000200 <__resetPRI>:
 200:	2f e0 21    	mov.w     #0x1e02, w15
 202:	0e 7f 22    	mov.w     #0x27f0, w14
 204:	0e 01 88    	mov.w     w14, 0x20
 206:	00 00 00    	nop       
 208:	0c 00 07    	rcall     0x222
 20a:	40 69 24    	mov.w     #0x4694, w0
 20c:	01 00 20    	mov.w     #0x0, w1
 20e:	11 00 07    	rcall     0x232
 210:	00 00 20    	mov.w     #0x0, w0
 212:	00 00 e0    	cp0.w     w0
 214:	02 00 32    	bra       Z, 0x21a
 216:	00 00 02    	call      0x0 <__resetPRI-0x200>
 218:	00 00 00 

0000021a <L11>:
 21a:	7a 3d 02    	call      0x3d7a <_main>
 21c:	00 00 00 
 21e:	00 40 da    	.pword 0xda4000
 220:	00 00 fe    	reset     

00000222 <__psv_init>:
 222:	44 40 a9    	bclr.b    0x44, #0x2
 224:	e0 2c 20    	mov.w     #0x2ce, w0
 226:	00 00 e0    	cp0.w     w0
 228:	03 00 32    	bra       Z, 0x230
 22a:	00 00 20    	mov.w     #0x0, w0
 22c:	a0 01 88    	mov.w     w0, 0x34
 22e:	44 40 a8    	bset.b    0x44, #0x2

00000230 <L12>:
 230:	00 00 06    	return    

00000232 <__data_init>:
 232:	91 01 88    	mov.w     w1, 0x32
 234:	80 00 78    	mov.w     w0, w1
 236:	00 00 eb    	clr.w     w0
 238:	15 00 37    	bra       0x264

0000023a <L11>:
 23a:	e2 80 40    	add.w     w1, #0x2, w1
 23c:	32 a0 b4    	addc.w    0x32
 23e:	91 01 ba    	tblrdl.w  [w1], w3
 240:	e2 80 40    	add.w     w1, #0x2, w1
 242:	32 a0 b4    	addc.w    0x32
 244:	91 02 ba    	tblrdl.w  [w1], w5
 246:	e2 80 40    	add.w     w1, #0x2, w1
 248:	32 a0 b4    	addc.w    0x32
 24a:	00 02 eb    	clr.w     w4
 24c:	47 2b de    	lsr.w     w5, #0x7, w6
 24e:	f5 07 b2    	and.w     #0x7f, w5
 250:	60 2c e1    	cp.b      w5, #0x0
 252:	04 00 3a    	bra       NZ, 0x25c <L21>

00000254 <L91>:
 254:	00 59 eb    	clr.b     [w2++]
 256:	83 01 e9    	dec.w     w3, w3
 258:	fd ff 3e    	bra       GTU, 0x254 <L91>
 25a:	04 00 37    	bra       0x264

0000025c <L21>:
 25c:	61 28 e1    	cp.w      w5, #0x1
 25e:	01 00 32    	bra       Z, 0x262
 260:	00 82 eb    	setm.w    w4

00000262 <L31>:
 262:	04 00 07    	rcall     0x26c <L12>

00000264 <L41>:
 264:	11 01 ba    	tblrdl.w  [w1], w2
 266:	02 00 e0    	cp0.w     w2
 268:	e8 ff 3a    	bra       NZ, 0x23a <L11>
 26a:	00 00 06    	return    

0000026c <L12>:
 26c:	31 59 ba    	tblrdl.b  [w1++], [w2++]
 26e:	83 01 e9    	dec.w     w3, w3
 270:	0c 00 32    	bra       Z, 0x28a <L22>
 272:	21 59 ba    	tblrdl.b  [w1--], [w2++]
 274:	83 01 e9    	dec.w     w3, w3
 276:	08 00 32    	bra       Z, 0x288 <L42>
 278:	04 00 e0    	cp0.w     w4
 27a:	03 00 3a    	bra       NZ, 0x282 <L13>

0000027c <L32>:
 27c:	e2 80 40    	add.w     w1, #0x2, w1
 27e:	32 a0 b4    	addc.w    0x32
 280:	f5 ff 37    	bra       0x26c <L12>

00000282 <L13>:
 282:	11 d9 ba    	tblrdh.b  [w1], [w2++]
 284:	83 01 e9    	dec.w     w3, w3
 286:	fa ff 3a    	bra       NZ, 0x27c <L32>

00000288 <L42>:
 288:	81 00 e8    	inc.w     w1, w1

0000028a <L22>:
 28a:	e1 80 40    	add.w     w1, #0x1, w1
 28c:	32 a0 b4    	addc.w    0x32
 28e:	00 00 06    	return    

00000290 <.handle>:
	...

00000300 <__DefaultInterrupt>:
 300:	00 40 da    	.pword 0xda4000
 302:	00 00 fe    	reset     

00000304 <_DataRdyUART1>:
 304:	22 c2 bf    	mov.b     0x222, WREG
 306:	61 00 60    	and.w     w0, #0x1, w0
 308:	00 00 06    	return    

0000030a <_ReadUART1>:
 30a:	20 c2 bf    	mov.b     0x220, WREG
 30c:	66 40 60    	and.b     w0, #0x6, w0
 30e:	e6 4f 50    	sub.b     w0, #0x6, [w15]
 310:	02 00 3a    	bra       NZ, 0x316
 312:	30 11 80    	mov.w     0x226, w0
 314:	00 00 06    	return    

00000316 <.L2>:
 316:	30 11 80    	mov.w     0x226, w0
 318:	f0 0f b2    	and.w     #0xff, w0
 31a:	00 00 06    	return    

0000031c <_PwrMgnt_OscSel_v1>:
 31c:	00 02 78    	mov.w     w0, w4
 31e:	42 c0 bf    	mov.b     0x42, WREG
 320:	00 80 fb    	ze        w0, w0
 322:	c5 02 de    	lsr.w     w0, #0x5, w5
 324:	91 02 80    	mov.w     0x52, w1
 326:	ff 3f fc    	disi      #0x3fff
 328:	00 ce b3    	mov.b     #0xe0, w0
 32a:	42 60 b7    	ior.b     0x42
 32c:	91 02 88    	mov.w     w1, 0x52
 32e:	00 00 20    	mov.w     #0x0, w0
 330:	90 01 88    	mov.w     w0, 0x32
 332:	c0 bf 2a    	mov.w     #0xabfc, w0
 334:	90 01 ba    	tblrdl.w  [w0], w3
 336:	03 08 b2    	and.w     #0x80, w3
 338:	05 00 3a    	bra       NZ, 0x344 <.L2>
 33a:	43 c7 bf    	mov.b     0x743, WREG
 33c:	44 00 de    	lsr.w     w0, #0x4, w0
 33e:	67 00 60    	and.w     w0, #0x7, w0
 340:	80 0f 52    	sub.w     w4, w0, [w15]
 342:	04 00 3a    	bra       NZ, 0x34c <.L4>

00000344 <.L2>:
 344:	92 02 80    	mov.w     0x52, w2
 346:	ff 3f fc    	disi      #0x3fff
 348:	c5 28 dd    	sl.w      w5, #0x5, w1
 34a:	1f 00 37    	bra       0x38a <.L13>

0000034c <.L4>:
 34c:	10 3a 80    	mov.w     0x742, w0
 34e:	a2 09 20    	mov.w     #0x9a, w2
 350:	81 07 20    	mov.w     #0x78, w1
 352:	36 74 20    	mov.w     #0x743, w6
 354:	01 4b 78    	mov.b     w1, [w6]
 356:	02 4b 78    	mov.b     w2, [w6]
 358:	04 4b 78    	mov.b     w4, [w6]
 35a:	00 04 a0    	bset.b    w0, #0x0
 35c:	00 80 fb    	ze        w0, w0
 35e:	72 05 20    	mov.w     #0x57, w2
 360:	61 04 20    	mov.w     #0x46, w1
 362:	24 74 20    	mov.w     #0x742, w4
 364:	01 4a 78    	mov.b     w1, [w4]
 366:	02 4a 78    	mov.b     w2, [w4]
 368:	00 4a 78    	mov.b     w0, [w4]
 36a:	83 00 78    	mov.w     w3, w1
 36c:	82 0c 20    	mov.w     #0xc8, w2
 36e:	01 00 37    	bra       0x372 <.L6>

00000370 <.L7>:
 370:	81 00 e8    	inc.w     w1, w1

00000372 <.L6>:
 372:	42 c7 bf    	mov.b     0x742, WREG
 374:	00 08 a3    	btst.z    w0, #0x0
 376:	02 00 32    	bra       Z, 0x37c <.L8>
 378:	82 8f 50    	sub.w     w1, w2, [w15]
 37a:	fa ff 3a    	bra       NZ, 0x370 <.L7>

0000037c <.L8>:
 37c:	e7 c0 62    	and.b     w5, #0x7, w1
 37e:	42 c7 bf    	mov.b     0x742, WREG
 380:	00 08 a3    	btst.z    w0, #0x0
 382:	09 00 32    	bra       Z, 0x396 <.L10>
 384:	92 02 80    	mov.w     0x52, w2
 386:	ff 3f fc    	disi      #0x3fff
 388:	c5 08 dd    	sl.w      w1, #0x5, w1

0000038a <.L13>:
 38a:	42 c0 bf    	mov.b     0x42, WREG
 38c:	7f 40 60    	and.b     w0, #0x1f, w0
 38e:	01 40 70    	ior.b     w0, w1, w0
 390:	42 e0 b7    	mov.b     WREG, 0x42
 392:	92 02 88    	mov.w     w2, 0x52
 394:	00 00 05    	retlw.w   #0x0, w0

00000396 <.L10>:
 396:	92 02 80    	mov.w     0x52, w2
 398:	ff 3f fc    	disi      #0x3fff
 39a:	c5 08 dd    	sl.w      w1, #0x5, w1
 39c:	42 c0 bf    	mov.b     0x42, WREG
 39e:	7f 40 60    	and.b     w0, #0x1f, w0
 3a0:	01 40 70    	ior.b     w0, w1, w0
 3a2:	42 e0 b7    	mov.b     WREG, 0x42
 3a4:	92 02 88    	mov.w     w2, 0x52
 3a6:	10 00 05    	retlw.w   #0x1, w0

000003a8 <___udivsi3>:
 3a8:	60 22 b8    	mul.uu    w4, #0x0, w4
 3aa:	06 02 20    	mov.w     #0x20, w6

000003ac <nextbit>:
 3ac:	00 00 d0    	sl.w      w0, w0
 3ae:	81 80 d2    	rlc.w     w1, w1
 3b0:	04 82 d2    	rlc.w     w4, w4
 3b2:	85 82 d2    	rlc.w     w5, w5
 3b4:	00 00 a0    	bset.w    w0, #0x0
 3b6:	02 02 52    	sub.w     w4, w2, w4
 3b8:	83 82 5a    	subb.w    w5, w3, w5
 3ba:	03 00 31    	bra       C, 0x3c2 <iterate>
 3bc:	02 02 42    	add.w     w4, w2, w4
 3be:	83 82 4a    	addc.w    w5, w3, w5
 3c0:	00 00 a1    	bclr.w    w0, #0x0

000003c2 <iterate>:
 3c2:	06 03 e9    	dec.w     w6, w6
 3c4:	f3 ff 3a    	bra       NZ, 0x3ac <nextbit>
 3c6:	00 00 06    	return    

000003c8 <___PplusBdi>:
 3c8:	88 1f 78    	mov.w     w8, [w15++]
 3ca:	00 04 78    	mov.w     w0, w8
 3cc:	50 01 be    	mov.d     [++w0], w2
 3ce:	40 00 be    	mov.d     [--w0], w0
 3d0:	04 00 40    	add.w     w0, w4, w0
 3d2:	85 80 48    	addc.w    w1, w5, w1
 3d4:	06 01 49    	addc.w    w2, w6, w2
 3d6:	87 81 49    	addc.w    w3, w7, w3
 3d8:	00 9c be    	mov.d     w0, [w8++]
 3da:	02 94 be    	mov.d     w2, [w8--]
 3dc:	04 00 e1    	cp.w      w0, w4
 3de:	05 88 e1    	cpb.w     w1, w5
 3e0:	06 90 e1    	cpb.w     w2, w6
 3e2:	07 98 e1    	cpb.w     w3, w7
 3e4:	02 00 31    	bra       C, 0x3ea <.L4>
 3e6:	68 00 44    	add.w     w8, #0x8, w0
 3e8:	10 08 e8    	inc.w     [w0], [w0]

000003ea <.L4>:
 3ea:	4f 04 78    	mov.w     [--w15], w8
 3ec:	00 00 06    	return    

000003ee <___udivmoddi3>:
 3ee:	f4 87 47    	add.w     w15, #0x14, w15
 3f0:	88 9f be    	mov.d     w8, [w15++]
 3f2:	8a 9f be    	mov.d     w10, [w15++]
 3f4:	8c 9f be    	mov.d     w12, [w15++]
 3f6:	8e 1f 78    	mov.w     w14, [w15++]
 3f8:	02 05 be    	mov.d     w2, w10
 3fa:	00 04 be    	mov.d     w0, w8
 3fc:	d4 b7 9f    	mov.w     w4, [w15-22]
 3fe:	e5 b7 9f    	mov.w     w5, [w15-20]
 400:	f6 b7 9f    	mov.w     w6, [w15-18]
 402:	87 bf 9f    	mov.w     w7, [w15-16]
 404:	00 00 eb    	clr.w     w0
 406:	c0 b7 9f    	mov.w     w0, [w15-24]
 408:	b0 b7 9f    	mov.w     w0, [w15-26]
 40a:	a0 b7 9f    	mov.w     w0, [w15-28]
 40c:	90 b7 9f    	mov.w     w0, [w15-30]
 40e:	80 b7 9f    	mov.w     w0, [w15-32]
 410:	0d 04 20    	mov.w     #0x40, w13

00000412 <.L6>:
 412:	bf b0 97    	mov.w     [w15-26], w1
 414:	4f b0 97    	mov.w     [w15-24], w0
 416:	00 01 40    	add.w     w0, w0, w2
 418:	00 00 e0    	cp0.w     w0
 41a:	0f 00 3d    	bra       GE, 0x43a <.L7>
 41c:	4f 08 de    	lsr.w     w1, #0xf, w0
 41e:	00 00 71    	ior.w     w2, w0, w0
 420:	c0 b7 9f    	mov.w     w0, [w15-24]
 422:	4d 00 07    	rcall     0x4be
 424:	01 00 3d    	bra       GE, 0x428 <.L10>
 426:	12 00 20    	mov.w     #0x1, w2

00000428 <.L10>:
 428:	50 00 07    	rcall     0x4ca <.LPA1>
 42a:	01 00 3d    	bra       GE, 0x42e <.L11>
 42c:	12 00 20    	mov.w     #0x1, w2

0000042e <.L11>:
 42e:	55 00 07    	rcall     0x4da <.LPA0>
 430:	61 00 07    	rcall     0x4f4 <.LPA4>
 432:	66 00 07    	rcall     0x500 <.LPA5>
 434:	0f 00 40    	add.w     w0, w15, w0
 436:	c8 ff 07    	rcall     0x3c8 <___PplusBdi>
 438:	22 00 37    	bra       0x47e <.L14>

0000043a <.L7>:
 43a:	4f 08 de    	lsr.w     w1, #0xf, w0
 43c:	00 06 71    	ior.w     w2, w0, w12
 43e:	cc b7 9f    	mov.w     w12, [w15-24]
 440:	3e 00 07    	rcall     0x4be
 442:	01 00 3d    	bra       GE, 0x446 <.L16>
 444:	12 00 20    	mov.w     #0x1, w2

00000446 <.L16>:
 446:	41 00 07    	rcall     0x4ca <.LPA1>
 448:	01 00 3d    	bra       GE, 0x44c <.L17>
 44a:	12 00 20    	mov.w     #0x1, w2

0000044c <.L17>:
 44c:	46 00 07    	rcall     0x4da <.LPA0>
 44e:	52 00 07    	rcall     0x4f4 <.LPA4>
 450:	0f b2 97    	mov.w     [w15-32], w4
 452:	9f b2 97    	mov.w     [w15-30], w5
 454:	2f b3 97    	mov.w     [w15-28], w6
 456:	bf b3 97    	mov.w     [w15-26], w7
 458:	59 00 07    	rcall     0x50c <.LPA6>
 45a:	00 00 52    	sub.w     w4, w0, w0
 45c:	81 80 5a    	subb.w    w5, w1, w1
 45e:	02 01 5b    	subb.w    w6, w2, w2
 460:	83 81 5b    	subb.w    w7, w3, w3
 462:	80 b7 9f    	mov.w     w0, [w15-32]
 464:	91 b7 9f    	mov.w     w1, [w15-30]
 466:	a2 b7 9f    	mov.w     w2, [w15-28]
 468:	b3 b7 9f    	mov.w     w3, [w15-26]
 46a:	00 07 eb    	clr.w     w14
 46c:	4f 00 07    	rcall     0x50c <.LPA6>
 46e:	00 20 e1    	cp.w      w4, w0
 470:	01 a8 e1    	cpb.w     w5, w1
 472:	02 b0 e1    	cpb.w     w6, w2
 474:	03 b8 e1    	cpb.w     w7, w3
 476:	01 00 31    	bra       C, 0x47a <.L20>
 478:	1e 00 20    	mov.w     #0x1, w14

0000047a <.L20>:
 47a:	0e 00 56    	sub.w     w12, w14, w0
 47c:	c0 b7 9f    	mov.w     w0, [w15-24]

0000047e <.L14>:
 47e:	4f b2 97    	mov.w     [w15-24], w4
 480:	04 00 e0    	cp0.w     w4
 482:	07 00 35    	bra       LT, 0x492
 484:	10 00 20    	mov.w     #0x1, w0
 486:	01 00 20    	mov.w     #0x0, w1
 488:	60 11 b8    	mul.uu    w2, #0x0, w2
 48a:	08 04 70    	ior.w     w0, w8, w8
 48c:	89 84 70    	ior.w     w1, w9, w9
 48e:	0a 05 71    	ior.w     w2, w10, w10
 490:	8b 85 71    	ior.w     w3, w11, w11

00000492 <.L21>:
 492:	8d 06 e9    	dec.w     w13, w13
 494:	be ff 3a    	bra       NZ, 0x412 <.L6>
 496:	04 00 e0    	cp0.w     w4
 498:	03 00 3d    	bra       GE, 0x4a0
 49a:	32 00 07    	rcall     0x500 <.LPA5>
 49c:	0f 00 40    	add.w     w0, w15, w0
 49e:	94 ff 07    	rcall     0x3c8 <___PplusBdi>

000004a0 <.L24>:
 4a0:	4f a8 97    	mov.w     [w15-40], w0
 4a2:	00 00 e0    	cp0.w     w0
 4a4:	04 00 3a    	bra       NZ, 0x4ae
 4a6:	0f b4 97    	mov.w     [w15-32], w8
 4a8:	9f b4 97    	mov.w     [w15-30], w9
 4aa:	2f b5 97    	mov.w     [w15-28], w10
 4ac:	bf b5 97    	mov.w     [w15-26], w11

000004ae <.L26>:
 4ae:	08 00 be    	mov.d     w8, w0
 4b0:	0a 01 be    	mov.d     w10, w2
 4b2:	4f 07 78    	mov.w     [--w15], w14
 4b4:	4f 06 be    	mov.d     [--w15], w12
 4b6:	4f 05 be    	mov.d     [--w15], w10
 4b8:	4f 04 be    	mov.d     [--w15], w8
 4ba:	4f 01 b1    	sub.w     #0x14, w15
 4bc:	00 00 06    	return    

000004be <.LPA3>:
 4be:	01 80 40    	add.w     w1, w1, w0
 4c0:	90 b7 9f    	mov.w     w0, [w15-30]
 4c2:	00 01 eb    	clr.w     w2
 4c4:	8f b0 97    	mov.w     [w15-32], w1
 4c6:	01 00 e0    	cp0.w     w1
 4c8:	00 00 06    	return    

000004ca <.LPA1>:
 4ca:	02 00 70    	ior.w     w0, w2, w0
 4cc:	90 b7 9f    	mov.w     w0, [w15-30]
 4ce:	01 80 40    	add.w     w1, w1, w0
 4d0:	80 b7 9f    	mov.w     w0, [w15-32]
 4d2:	00 01 eb    	clr.w     w2
 4d4:	ff a8 97    	mov.w     [w15-34], w1
 4d6:	01 00 e0    	cp0.w     w1
 4d8:	00 00 06    	return    

000004da <.LPA0>:
 4da:	02 00 70    	ior.w     w0, w2, w0
 4dc:	80 b7 9f    	mov.w     w0, [w15-32]
 4de:	01 80 40    	add.w     w1, w1, w0
 4e0:	6f aa 97    	mov.w     [w15-36], w4
 4e2:	cf 20 de    	lsr.w     w4, #0xf, w1
 4e4:	01 00 70    	ior.w     w0, w1, w0
 4e6:	f0 af 9f    	mov.w     w0, [w15-34]
 4e8:	04 02 42    	add.w     w4, w4, w4
 4ea:	08 00 be    	mov.d     w8, w0
 4ec:	0a 01 be    	mov.d     w10, w2
 4ee:	4f 18 de    	lsr.w     w3, #0xf, w0
 4f0:	00 02 72    	ior.w     w4, w0, w4
 4f2:	00 00 06    	return    

000004f4 <.LPA4>:
 4f4:	e4 af 9f    	mov.w     w4, [w15-36]
 4f6:	08 04 44    	add.w     w8, w8, w8
 4f8:	89 84 4c    	addc.w    w9, w9, w9
 4fa:	0a 05 4d    	addc.w    w10, w10, w10
 4fc:	8b 85 4d    	addc.w    w11, w11, w11
 4fe:	00 00 06    	return    

00000500 <.LPA5>:
 500:	3f b2 97    	mov.w     [w15-26], w4
 502:	cf b2 97    	mov.w     [w15-24], w5
 504:	5f b3 97    	mov.w     [w15-22], w6
 506:	ef b3 97    	mov.w     [w15-20], w7
 508:	00 fe 2f    	mov.w     #0xffe0, w0
 50a:	00 00 06    	return    

0000050c <.LPA6>:
 50c:	3f b0 97    	mov.w     [w15-26], w0
 50e:	cf b0 97    	mov.w     [w15-24], w1
 510:	5f b1 97    	mov.w     [w15-22], w2
 512:	ef b1 97    	mov.w     [w15-20], w3
 514:	00 00 06    	return    

00000516 <___udivdi3>:
 516:	88 1f 78    	mov.w     w8, [w15++]
 518:	18 00 20    	mov.w     #0x1, w8
 51a:	88 1f 78    	mov.w     w8, [w15++]
 51c:	68 ff 07    	rcall     0x3ee <___udivmoddi3>
 51e:	8f 87 e9    	dec2.w    w15, w15
 520:	4f 04 78    	mov.w     [--w15], w8
 522:	00 00 06    	return    

00000524 <___umoddi3>:
 524:	80 1f eb    	clr.w     [w15++]
 526:	63 ff 07    	rcall     0x3ee <___udivmoddi3>
 528:	8f 87 e9    	dec2.w    w15, w15
 52a:	00 00 06    	return    

0000052c <___divdi3>:
 52c:	88 9f be    	mov.d     w8, [w15++]
 52e:	8a 9f be    	mov.d     w10, [w15++]
 530:	8c 1f 78    	mov.w     w12, [w15++]
 532:	02 05 be    	mov.d     w2, w10
 534:	00 04 be    	mov.d     w0, w8
 536:	e0 0f 50    	sub.w     w0, #0x0, [w15]
 538:	e0 8f 58    	subb.w    w1, #0x0, [w15]
 53a:	e0 0f 59    	subb.w    w2, #0x0, [w15]
 53c:	e0 8f 59    	subb.w    w3, #0x0, [w15]
 53e:	0c 00 3d    	bra       GE, 0x558 <.L36>
 540:	60 00 b8    	mul.uu    w0, #0x0, w0
 542:	60 11 b8    	mul.uu    w2, #0x0, w2
 544:	08 04 50    	sub.w     w0, w8, w8
 546:	89 84 58    	subb.w    w1, w9, w9
 548:	0a 05 59    	subb.w    w2, w10, w10
 54a:	8b 85 59    	subb.w    w3, w11, w11
 54c:	1c 00 20    	mov.w     #0x1, w12
 54e:	1f 00 07    	rcall     0x58e <.LPA7>
 550:	08 00 3d    	bra       GE, 0x562 <.L40>
 552:	18 00 07    	rcall     0x584 <.LPA8>
 554:	00 06 eb    	clr.w     w12
 556:	05 00 37    	bra       0x562 <.L40>

00000558 <.L36>:
 558:	00 06 eb    	clr.w     w12
 55a:	19 00 07    	rcall     0x58e <.LPA7>
 55c:	02 00 3d    	bra       GE, 0x562 <.L40>
 55e:	0f 00 07    	rcall     0x57e <.LPA2>
 560:	1c 00 20    	mov.w     #0x1, w12

00000562 <.L40>:
 562:	08 00 be    	mov.d     w8, w0
 564:	0a 01 be    	mov.d     w10, w2
 566:	d7 ff 07    	rcall     0x516 <___udivdi3>
 568:	02 03 be    	mov.d     w2, w6
 56a:	00 02 be    	mov.d     w0, w4
 56c:	0c 00 e0    	cp0.w     w12
 56e:	01 00 32    	bra       Z, 0x572 <.L43>
 570:	06 00 07    	rcall     0x57e <.LPA2>

00000572 <.L43>:
 572:	04 00 be    	mov.d     w4, w0
 574:	06 01 be    	mov.d     w6, w2
 576:	4f 06 78    	mov.w     [--w15], w12
 578:	4f 05 be    	mov.d     [--w15], w10
 57a:	4f 04 be    	mov.d     [--w15], w8
 57c:	00 00 06    	return    

0000057e <.LPA2>:
 57e:	60 00 b8    	mul.uu    w0, #0x0, w0
 580:	60 11 b8    	mul.uu    w2, #0x0, w2
 582:	00 00 37    	bra       0x584 <.LPA8>

00000584 <.LPA8>:
 584:	04 02 50    	sub.w     w0, w4, w4
 586:	85 82 58    	subb.w    w1, w5, w5
 588:	06 03 59    	subb.w    w2, w6, w6
 58a:	87 83 59    	subb.w    w3, w7, w7
 58c:	00 00 06    	return    

0000058e <.LPA7>:
 58e:	e0 0f 52    	sub.w     w4, #0x0, [w15]
 590:	e0 8f 5a    	subb.w    w5, #0x0, [w15]
 592:	e0 0f 5b    	subb.w    w6, #0x0, [w15]
 594:	e0 8f 5b    	subb.w    w7, #0x0, [w15]
 596:	00 00 06    	return    

00000598 <___moddi3>:
 598:	88 9f be    	mov.d     w8, [w15++]
 59a:	8a 9f be    	mov.d     w10, [w15++]
 59c:	8c 1f 78    	mov.w     w12, [w15++]
 59e:	02 05 be    	mov.d     w2, w10
 5a0:	00 04 be    	mov.d     w0, w8
 5a2:	e0 0f 50    	sub.w     w0, #0x0, [w15]
 5a4:	e0 8f 58    	subb.w    w1, #0x0, [w15]
 5a6:	e0 0f 59    	subb.w    w2, #0x0, [w15]
 5a8:	e0 8f 59    	subb.w    w3, #0x0, [w15]
 5aa:	0a 00 3d    	bra       GE, 0x5c0 <.L47>
 5ac:	60 00 b8    	mul.uu    w0, #0x0, w0
 5ae:	60 11 b8    	mul.uu    w2, #0x0, w2
 5b0:	08 04 50    	sub.w     w0, w8, w8
 5b2:	89 84 58    	subb.w    w1, w9, w9
 5b4:	0a 05 59    	subb.w    w2, w10, w10
 5b6:	8b 85 59    	subb.w    w3, w11, w11
 5b8:	1c 00 20    	mov.w     #0x1, w12
 5ba:	18 00 07    	rcall     0x5ec <.LPA9>
 5bc:	07 00 3d    	bra       GE, 0x5cc <.L51>
 5be:	05 00 37    	bra       0x5ca <.L57>

000005c0 <.L47>:
 5c0:	00 06 eb    	clr.w     w12
 5c2:	14 00 07    	rcall     0x5ec <.LPA9>
 5c4:	03 00 3d    	bra       GE, 0x5cc <.L51>
 5c6:	60 00 b8    	mul.uu    w0, #0x0, w0
 5c8:	60 11 b8    	mul.uu    w2, #0x0, w2

000005ca <.L57>:
 5ca:	15 00 07    	rcall     0x5f6 <.LPA10>

000005cc <.L51>:
 5cc:	08 00 be    	mov.d     w8, w0
 5ce:	0a 01 be    	mov.d     w10, w2
 5d0:	a9 ff 07    	rcall     0x524 <___umoddi3>
 5d2:	02 03 be    	mov.d     w2, w6
 5d4:	00 02 be    	mov.d     w0, w4
 5d6:	0c 00 e0    	cp0.w     w12
 5d8:	03 00 32    	bra       Z, 0x5e0 <.L54>
 5da:	60 00 b8    	mul.uu    w0, #0x0, w0
 5dc:	60 11 b8    	mul.uu    w2, #0x0, w2
 5de:	0b 00 07    	rcall     0x5f6 <.LPA10>

000005e0 <.L54>:
 5e0:	04 00 be    	mov.d     w4, w0
 5e2:	06 01 be    	mov.d     w6, w2
 5e4:	4f 06 78    	mov.w     [--w15], w12
 5e6:	4f 05 be    	mov.d     [--w15], w10
 5e8:	4f 04 be    	mov.d     [--w15], w8
 5ea:	00 00 06    	return    

000005ec <.LPA9>:
 5ec:	e0 0f 52    	sub.w     w4, #0x0, [w15]
 5ee:	e0 8f 5a    	subb.w    w5, #0x0, [w15]
 5f0:	e0 0f 5b    	subb.w    w6, #0x0, [w15]
 5f2:	e0 8f 5b    	subb.w    w7, #0x0, [w15]
 5f4:	00 00 06    	return    

000005f6 <.LPA10>:
 5f6:	04 02 50    	sub.w     w0, w4, w4
 5f8:	85 82 58    	subb.w    w1, w5, w5
 5fa:	06 03 59    	subb.w    w2, w6, w6
 5fc:	87 83 59    	subb.w    w3, w7, w7
 5fe:	00 00 06    	return    

00000600 <___muldi3>:
 600:	88 9f be    	mov.d     w8, [w15++]
 602:	8a 9f be    	mov.d     w10, [w15++]
 604:	8c 1f 78    	mov.w     w12, [w15++]
 606:	02 05 be    	mov.d     w2, w10
 608:	00 04 be    	mov.d     w0, w8
 60a:	00 06 eb    	clr.w     w12
 60c:	e0 0f 50    	sub.w     w0, #0x0, [w15]
 60e:	e0 8f 58    	subb.w    w1, #0x0, [w15]
 610:	e0 0f 59    	subb.w    w2, #0x0, [w15]
 612:	e0 8f 59    	subb.w    w3, #0x0, [w15]
 614:	07 00 3d    	bra       GE, 0x624
 616:	60 00 b8    	mul.uu    w0, #0x0, w0
 618:	60 11 b8    	mul.uu    w2, #0x0, w2
 61a:	08 04 50    	sub.w     w0, w8, w8
 61c:	89 84 58    	subb.w    w1, w9, w9
 61e:	0a 05 59    	subb.w    w2, w10, w10
 620:	8b 85 59    	subb.w    w3, w11, w11
 622:	1c 00 20    	mov.w     #0x1, w12

00000624 <.L4>:
 624:	e0 0f 52    	sub.w     w4, #0x0, [w15]
 626:	e0 8f 5a    	subb.w    w5, #0x0, [w15]
 628:	e0 0f 5b    	subb.w    w6, #0x0, [w15]
 62a:	e0 8f 5b    	subb.w    w7, #0x0, [w15]
 62c:	02 00 3d    	bra       GE, 0x632 <.L5>
 62e:	0f 00 07    	rcall     0x64e
 630:	0c 00 a2    	btg.w     w12, #0x0

00000632 <.L5>:
 632:	08 00 be    	mov.d     w8, w0
 634:	0a 01 be    	mov.d     w10, w2
 636:	12 00 07    	rcall     0x65c
 638:	02 03 be    	mov.d     w2, w6
 63a:	00 02 be    	mov.d     w0, w4
 63c:	0c 00 e0    	cp0.w     w12
 63e:	01 00 32    	bra       Z, 0x642
 640:	06 00 07    	rcall     0x64e

00000642 <.L7>:
 642:	04 00 be    	mov.d     w4, w0
 644:	06 01 be    	mov.d     w6, w2
 646:	4f 06 78    	mov.w     [--w15], w12
 648:	4f 05 be    	mov.d     [--w15], w10
 64a:	4f 04 be    	mov.d     [--w15], w8
 64c:	00 00 06    	return    

0000064e <.LPA0>:
 64e:	60 00 b8    	mul.uu    w0, #0x0, w0
 650:	60 11 b8    	mul.uu    w2, #0x0, w2
 652:	04 02 50    	sub.w     w0, w4, w4
 654:	85 82 58    	subb.w    w1, w5, w5
 656:	06 03 59    	subb.w    w2, w6, w6
 658:	87 83 59    	subb.w    w3, w7, w7
 65a:	00 00 06    	return    

0000065c <___umuldi3>:
 65c:	88 9f be    	mov.d     w8, [w15++]
 65e:	8a 9f be    	mov.d     w10, [w15++]
 660:	8c 9f be    	mov.d     w12, [w15++]
 662:	04 04 b8    	mul.uu    w0, w4, w8
 664:	05 06 b8    	mul.uu    w0, w5, w12
 666:	89 04 46    	add.w     w12, w9, w9
 668:	60 85 4e    	addc.w    w13, #0x0, w10
 66a:	06 06 b8    	mul.uu    w0, w6, w12
 66c:	0a 05 46    	add.w     w12, w10, w10
 66e:	e0 85 4e    	addc.w    w13, #0x0, w11
 670:	07 06 b8    	mul.uu    w0, w7, w12
 672:	8b 05 46    	add.w     w12, w11, w11
 674:	04 0e b8    	mul.uu    w1, w4, w12
 676:	89 04 46    	add.w     w12, w9, w9
 678:	0a 85 4e    	addc.w    w13, w10, w10
 67a:	e0 85 4d    	addc.w    w11, #0x0, w11
 67c:	05 0e b8    	mul.uu    w1, w5, w12
 67e:	0a 05 46    	add.w     w12, w10, w10
 680:	8b 85 4e    	addc.w    w13, w11, w11
 682:	06 0e b8    	mul.uu    w1, w6, w12
 684:	8b 05 46    	add.w     w12, w11, w11
 686:	04 16 b8    	mul.uu    w2, w4, w12
 688:	0a 05 46    	add.w     w12, w10, w10
 68a:	8b 85 4e    	addc.w    w13, w11, w11
 68c:	05 16 b8    	mul.uu    w2, w5, w12
 68e:	8b 05 46    	add.w     w12, w11, w11
 690:	04 1e b8    	mul.uu    w3, w4, w12
 692:	8b 05 46    	add.w     w12, w11, w11
 694:	08 00 be    	mov.d     w8, w0
 696:	0a 01 be    	mov.d     w10, w2
 698:	4f 06 be    	mov.d     [--w15], w12
 69a:	4f 05 be    	mov.d     [--w15], w10
 69c:	4f 04 be    	mov.d     [--w15], w8
 69e:	00 00 06    	return    

000006a0 <_memcpy>:
 6a0:	80 01 eb    	clr.w     w3
 6a2:	02 00 37    	bra       0x6a8

000006a4 <.L3>:
 6a4:	61 f0 79    	mov.b     [w1+w3], [w0+w3]
 6a6:	83 01 e8    	inc.w     w3, w3

000006a8 <.L2>:
 6a8:	82 8f 51    	sub.w     w3, w2, [w15]
 6aa:	fc ff 3a    	bra       NZ, 0x6a4
 6ac:	00 00 06    	return    

000006ae <_memmove>:
 6ae:	00 02 78    	mov.w     w0, w4
 6b0:	80 8f 50    	sub.w     w1, w0, [w15]
 6b2:	0a 00 31    	bra       C, 0x6c8
 6b4:	82 81 40    	add.w     w1, w2, w3
 6b6:	80 8f 51    	sub.w     w3, w0, [w15]
 6b8:	07 00 36    	bra       LEU, 0x6c8
 6ba:	02 02 40    	add.w     w0, w2, w4
 6bc:	80 00 eb    	clr.w     w1

000006be <.L5>:
 6be:	43 62 78    	mov.b     [--w3], [--w4]
 6c0:	81 00 e8    	inc.w     w1, w1
 6c2:	82 8f 50    	sub.w     w1, w2, [w15]
 6c4:	07 00 32    	bra       Z, 0x6d4
 6c6:	fb ff 37    	bra       0x6be <.L5>

000006c8 <.L2>:
 6c8:	02 00 e0    	cp0.w     w2
 6ca:	04 00 32    	bra       Z, 0x6d4
 6cc:	02 81 40    	add.w     w1, w2, w2

000006ce <.L8>:
 6ce:	31 5a 78    	mov.b     [w1++], [w4++]
 6d0:	82 8f 50    	sub.w     w1, w2, [w15]
 6d2:	fd ff 3a    	bra       NZ, 0x6ce

000006d4 <.L6>:
 6d4:	00 00 06    	return    

000006d6 <_memset>:
 6d6:	80 01 eb    	clr.w     w3
 6d8:	02 00 37    	bra       0x6de <.L2>

000006da <.L3>:
 6da:	81 71 78    	mov.b     w1, [w3+w0]
 6dc:	83 01 e8    	inc.w     w3, w3

000006de <.L2>:
 6de:	82 8f 51    	sub.w     w3, w2, [w15]
 6e0:	fc ff 3a    	bra       NZ, 0x6da <.L3>
 6e2:	00 00 06    	return    

000006e4 <_strlen>:
 6e4:	80 00 78    	mov.w     w0, w1

000006e6 <.L2>:
 6e6:	30 04 e0    	cp0.b     [w0++]
 6e8:	fe ff 3a    	bra       NZ, 0x6e6 <.L2>
 6ea:	01 00 50    	sub.w     w0, w1, w0
 6ec:	00 00 e9    	dec.w     w0, w0
 6ee:	00 00 06    	return    
Disassembly of section __CONFIG4:

0000abf8 <__CONFIG4>:
    abf8:	33 ff 00    	nop       
Disassembly of section __CONFIG3:

0000abfa <__CONFIG3>:
    abfa:	c0 fc 00    	nop       
Disassembly of section __CONFIG2:

0000abfc <__CONFIG1-0x2>:
    abfc:	8f 09 00    	nop       
Disassembly of section __CONFIG1:

0000abfe <__CONFIG2+0x2>:
    abfe:	60 3f 00    	nop       
Disassembly of section .ivt:

00000004 <__CONFIG3-0xabf6>:
   4:	00 03 00    	nop       
   6:	00 03 00    	nop       
   8:	00 03 00    	nop       
   a:	00 03 00    	nop       
   c:	00 03 00    	nop       
   e:	00 03 00    	nop       
  10:	00 03 00    	nop       
  12:	00 03 00    	nop       
  14:	00 03 00    	nop       
  16:	00 03 00    	nop       
  18:	00 03 00    	nop       
  1a:	00 03 00    	nop       
  1c:	00 03 00    	nop       
  1e:	00 03 00    	nop       
  20:	00 03 00    	nop       
  22:	00 03 00    	nop       
  24:	fa 48 00    	nop       
  26:	00 03 00    	nop       
  28:	00 03 00    	nop       
  2a:	1e 42 00    	nop       
  2c:	00 03 00    	nop       
  2e:	00 03 00    	nop       
  30:	00 03 00    	nop       
  32:	00 03 00    	nop       
  34:	00 03 00    	nop       
  36:	00 03 00    	nop       
  38:	00 03 00    	nop       
  3a:	00 03 00    	nop       
  3c:	ce 27 00    	nop       
  3e:	00 03 00    	nop       
  40:	00 03 00    	nop       
  42:	00 03 00    	nop       
  44:	00 03 00    	nop       
  46:	00 03 00    	nop       
  48:	00 03 00    	nop       
  4a:	dc 47 00    	nop       
  4c:	00 03 00    	nop       
  4e:	00 03 00    	nop       
  50:	00 03 00    	nop       
  52:	00 03 00    	nop       
  54:	00 03 00    	nop       
  56:	00 03 00    	nop       
  58:	00 03 00    	nop       
  5a:	00 03 00    	nop       
  5c:	00 03 00    	nop       
  5e:	00 03 00    	nop       
  60:	00 03 00    	nop       
  62:	00 03 00    	nop       
  64:	00 03 00    	nop       
  66:	00 03 00    	nop       
  68:	00 03 00    	nop       
  6a:	00 03 00    	nop       
  6c:	00 03 00    	nop       
  6e:	00 03 00    	nop       
  70:	00 03 00    	nop       
  72:	00 03 00    	nop       
  74:	00 03 00    	nop       
  76:	00 03 00    	nop       
  78:	00 03 00    	nop       
  7a:	00 03 00    	nop       
  7c:	00 03 00    	nop       
  7e:	00 03 00    	nop       
  80:	00 03 00    	nop       
  82:	00 03 00    	nop       
  84:	00 03 00    	nop       
  86:	00 03 00    	nop       
  88:	00 03 00    	nop       
  8a:	00 03 00    	nop       
  8c:	00 03 00    	nop       
  8e:	00 03 00    	nop       
  90:	00 03 00    	nop       
  92:	00 03 00    	nop       
  94:	00 03 00    	nop       
  96:	00 03 00    	nop       
  98:	00 03 00    	nop       
  9a:	00 03 00    	nop       
  9c:	00 03 00    	nop       
  9e:	00 03 00    	nop       
  a0:	00 03 00    	nop       
  a2:	00 03 00    	nop       
  a4:	00 03 00    	nop       
  a6:	00 03 00    	nop       
  a8:	00 03 00    	nop       
  aa:	00 03 00    	nop       
  ac:	00 03 00    	nop       
  ae:	00 03 00    	nop       
  b0:	00 03 00    	nop       
  b2:	00 03 00    	nop       
  b4:	00 03 00    	nop       
  b6:	00 03 00    	nop       
  b8:	00 03 00    	nop       
  ba:	00 03 00    	nop       
  bc:	00 03 00    	nop       
  be:	00 03 00    	nop       
  c0:	00 03 00    	nop       
  c2:	00 03 00    	nop       
  c4:	00 03 00    	nop       
  c6:	00 03 00    	nop       
  c8:	00 03 00    	nop       
  ca:	00 03 00    	nop       
  cc:	00 03 00    	nop       
  ce:	00 03 00    	nop       
  d0:	00 03 00    	nop       
  d2:	00 03 00    	nop       
  d4:	00 03 00    	nop       
  d6:	00 03 00    	nop       
  d8:	00 03 00    	nop       
  da:	00 03 00    	nop       
  dc:	00 03 00    	nop       
  de:	00 03 00    	nop       
  e0:	00 03 00    	nop       
  e2:	00 03 00    	nop       
  e4:	00 03 00    	nop       
  e6:	00 03 00    	nop       
  e8:	00 03 00    	nop       
  ea:	00 03 00    	nop       
  ec:	00 03 00    	nop       
  ee:	00 03 00    	nop       
  f0:	00 03 00    	nop       
  f2:	00 03 00    	nop       
  f4:	00 03 00    	nop       
  f6:	00 03 00    	nop       
  f8:	00 03 00    	nop       
  fa:	00 03 00    	nop       
  fc:	00 03 00    	nop       
  fe:	00 03 00    	nop       
Disassembly of section .aivt:

00000104 <__CONFIG4-0xaaf4>:
 104:	00 03 00    	nop       
 106:	00 03 00    	nop       
 108:	00 03 00    	nop       
 10a:	00 03 00    	nop       
 10c:	00 03 00    	nop       
 10e:	00 03 00    	nop       
 110:	00 03 00    	nop       
 112:	00 03 00    	nop       
 114:	00 03 00    	nop       
 116:	00 03 00    	nop       
 118:	00 03 00    	nop       
 11a:	00 03 00    	nop       
 11c:	00 03 00    	nop       
 11e:	00 03 00    	nop       
 120:	00 03 00    	nop       
 122:	00 03 00    	nop       
 124:	fa 48 00    	nop       
 126:	00 03 00    	nop       
 128:	00 03 00    	nop       
 12a:	1e 42 00    	nop       
 12c:	00 03 00    	nop       
 12e:	00 03 00    	nop       
 130:	00 03 00    	nop       
 132:	00 03 00    	nop       
 134:	00 03 00    	nop       
 136:	00 03 00    	nop       
 138:	00 03 00    	nop       
 13a:	00 03 00    	nop       
 13c:	ce 27 00    	nop       
 13e:	00 03 00    	nop       
 140:	00 03 00    	nop       
 142:	00 03 00    	nop       
 144:	00 03 00    	nop       
 146:	00 03 00    	nop       
 148:	00 03 00    	nop       
 14a:	dc 47 00    	nop       
 14c:	00 03 00    	nop       
 14e:	00 03 00    	nop       
 150:	00 03 00    	nop       
 152:	00 03 00    	nop       
 154:	00 03 00    	nop       
 156:	00 03 00    	nop       
 158:	00 03 00    	nop       
 15a:	00 03 00    	nop       
 15c:	00 03 00    	nop       
 15e:	00 03 00    	nop       
 160:	00 03 00    	nop       
 162:	00 03 00    	nop       
 164:	00 03 00    	nop       
 166:	00 03 00    	nop       
 168:	00 03 00    	nop       
 16a:	00 03 00    	nop       
 16c:	00 03 00    	nop       
 16e:	00 03 00    	nop       
 170:	00 03 00    	nop       
 172:	00 03 00    	nop       
 174:	00 03 00    	nop       
 176:	00 03 00    	nop       
 178:	00 03 00    	nop       
 17a:	00 03 00    	nop       
 17c:	00 03 00    	nop       
 17e:	00 03 00    	nop       
 180:	00 03 00    	nop       
 182:	00 03 00    	nop       
 184:	00 03 00    	nop       
 186:	00 03 00    	nop       
 188:	00 03 00    	nop       
 18a:	00 03 00    	nop       
 18c:	00 03 00    	nop       
 18e:	00 03 00    	nop       
 190:	00 03 00    	nop       
 192:	00 03 00    	nop       
 194:	00 03 00    	nop       
 196:	00 03 00    	nop       
 198:	00 03 00    	nop       
 19a:	00 03 00    	nop       
 19c:	00 03 00    	nop       
 19e:	00 03 00    	nop       
 1a0:	00 03 00    	nop       
 1a2:	00 03 00    	nop       
 1a4:	00 03 00    	nop       
 1a6:	00 03 00    	nop       
 1a8:	00 03 00    	nop       
 1aa:	00 03 00    	nop       
 1ac:	00 03 00    	nop       
 1ae:	00 03 00    	nop       
 1b0:	00 03 00    	nop       
 1b2:	00 03 00    	nop       
 1b4:	00 03 00    	nop       
 1b6:	00 03 00    	nop       
 1b8:	00 03 00    	nop       
 1ba:	00 03 00    	nop       
 1bc:	00 03 00    	nop       
 1be:	00 03 00    	nop       
 1c0:	00 03 00    	nop       
 1c2:	00 03 00    	nop       
 1c4:	00 03 00    	nop       
 1c6:	00 03 00    	nop       
 1c8:	00 03 00    	nop       
 1ca:	00 03 00    	nop       
 1cc:	00 03 00    	nop       
 1ce:	00 03 00    	nop       
 1d0:	00 03 00    	nop       
 1d2:	00 03 00    	nop       
 1d4:	00 03 00    	nop       
 1d6:	00 03 00    	nop       
 1d8:	00 03 00    	nop       
 1da:	00 03 00    	nop       
 1dc:	00 03 00    	nop       
 1de:	00 03 00    	nop       
 1e0:	00 03 00    	nop       
 1e2:	00 03 00    	nop       
 1e4:	00 03 00    	nop       
 1e6:	00 03 00    	nop       
 1e8:	00 03 00    	nop       
 1ea:	00 03 00    	nop       
 1ec:	00 03 00    	nop       
 1ee:	00 03 00    	nop       
 1f0:	00 03 00    	nop       
 1f2:	00 03 00    	nop       
 1f4:	00 03 00    	nop       
 1f6:	00 03 00    	nop       
 1f8:	00 03 00    	nop       
 1fa:	00 03 00    	nop       
 1fc:	00 03 00    	nop       
 1fe:	00 03 00    	nop       
Disassembly of section _02ad4e005630075e:

00009400 <_enableBootloader>:
    9400:	00 00 fa    	lnk       #0x0

00009402 <.L3>:
    9402:	ff ff 37    	bra       .
Disassembly of section _02b360005630075e:

00008ffe <_userReset>:
    8ffe:	00 02       	.word 0x200
Disassembly of section _02b360e05630075e:

00008ffc <_appId>:
    8ffc:	ae ba       	.word 0xbaae
Disassembly of section .const:

000086f0 <_crc16OffsetTable>:
    86f0:	00 00       	.word 0
    86f2:	21 10       	.word 0x1021
    86f4:	42 20       	.word 0x2042
    86f6:	63 30       	.word 0x3063
    86f8:	84 40       	.word 0x4084
    86fa:	a5 50       	.word 0x50a5
    86fc:	c6 60       	.word 0x60c6
    86fe:	e7 70       	.word 0x70e7
    8700:	08 81       	.word 0x8108
    8702:	29 91       	.word 0x9129
    8704:	4a a1       	.word 0xa14a
    8706:	6b b1       	.word 0xb16b
    8708:	8c c1       	.word 0xc18c
    870a:	ad d1       	.word 0xd1ad
    870c:	ce e1       	.word 0xe1ce
    870e:	ef f1       	.word 0xf1ef
    8710:	31 12       	.word 0x1231
    8712:	10 02       	.word 0x210
    8714:	73 32       	.word 0x3273
    8716:	52 22       	.word 0x2252
    8718:	b5 52       	.word 0x52b5
    871a:	94 42       	.word 0x4294
    871c:	f7 72       	.word 0x72f7
    871e:	d6 62       	.word 0x62d6
    8720:	39 93       	.word 0x9339
    8722:	18 83       	.word 0x8318
    8724:	7b b3       	.word 0xb37b
    8726:	5a a3       	.word 0xa35a
    8728:	bd d3       	.word 0xd3bd
    872a:	9c c3       	.word 0xc39c
    872c:	ff f3       	.word 0xf3ff
    872e:	de e3       	.word 0xe3de
    8730:	62 24       	.word 0x2462
    8732:	43 34       	.word 0x3443
    8734:	20 04       	.word 0x420
    8736:	01 14       	.word 0x1401
    8738:	e6 64       	.word 0x64e6
    873a:	c7 74       	.word 0x74c7
    873c:	a4 44       	.word 0x44a4
    873e:	85 54       	.word 0x5485
    8740:	6a a5       	.word 0xa56a
    8742:	4b b5       	.word 0xb54b
    8744:	28 85       	.word 0x8528
    8746:	09 95       	.word 0x9509
    8748:	ee e5       	.word 0xe5ee
    874a:	cf f5       	.word 0xf5cf
    874c:	ac c5       	.word 0xc5ac
    874e:	8d d5       	.word 0xd58d
    8750:	53 36       	.word 0x3653
    8752:	72 26       	.word 0x2672
    8754:	11 16       	.word 0x1611
    8756:	30 06       	.word 0x630
    8758:	d7 76       	.word 0x76d7
    875a:	f6 66       	.word 0x66f6
    875c:	95 56       	.word 0x5695
    875e:	b4 46       	.word 0x46b4
    8760:	5b b7       	.word 0xb75b
    8762:	7a a7       	.word 0xa77a
    8764:	19 97       	.word 0x9719
    8766:	38 87       	.word 0x8738
    8768:	df f7       	.word 0xf7df
    876a:	fe e7       	.word 0xe7fe
    876c:	9d d7       	.word 0xd79d
    876e:	bc c7       	.word 0xc7bc
    8770:	c4 48       	.word 0x48c4
    8772:	e5 58       	.word 0x58e5
    8774:	86 68       	.word 0x6886
    8776:	a7 78       	.word 0x78a7
    8778:	40 08       	.word 0x840
    877a:	61 18       	.word 0x1861
    877c:	02 28       	.word 0x2802
    877e:	23 38       	.word 0x3823
    8780:	cc c9       	.word 0xc9cc
    8782:	ed d9       	.word 0xd9ed
    8784:	8e e9       	.word 0xe98e
    8786:	af f9       	.word 0xf9af
    8788:	48 89       	.word 0x8948
    878a:	69 99       	.word 0x9969
    878c:	0a a9       	.word 0xa90a
    878e:	2b b9       	.word 0xb92b
    8790:	f5 5a       	.word 0x5af5
    8792:	d4 4a       	.word 0x4ad4
    8794:	b7 7a       	.word 0x7ab7
    8796:	96 6a       	.word 0x6a96
    8798:	71 1a       	.word 0x1a71
    879a:	50 0a       	.word 0xa50
    879c:	33 3a       	.word 0x3a33
    879e:	12 2a       	.word 0x2a12
    87a0:	fd db       	.word 0xdbfd
    87a2:	dc cb       	.word 0xcbdc
    87a4:	bf fb       	.word 0xfbbf
    87a6:	9e eb       	.word 0xeb9e
    87a8:	79 9b       	.word 0x9b79
    87aa:	58 8b       	.word 0x8b58
    87ac:	3b bb       	.word 0xbb3b
    87ae:	1a ab       	.word 0xab1a
    87b0:	a6 6c       	.word 0x6ca6
    87b2:	87 7c       	.word 0x7c87
    87b4:	e4 4c       	.word 0x4ce4
    87b6:	c5 5c       	.word 0x5cc5
    87b8:	22 2c       	.word 0x2c22
    87ba:	03 3c       	.word 0x3c03
    87bc:	60 0c       	.word 0xc60
    87be:	41 1c       	.word 0x1c41
    87c0:	ae ed       	.word 0xedae
    87c2:	8f fd       	.word 0xfd8f
    87c4:	ec cd       	.word 0xcdec
    87c6:	cd dd       	.word 0xddcd
    87c8:	2a ad       	.word 0xad2a
    87ca:	0b bd       	.word 0xbd0b
    87cc:	68 8d       	.word 0x8d68
    87ce:	49 9d       	.word 0x9d49
    87d0:	97 7e       	.word 0x7e97
    87d2:	b6 6e       	.word 0x6eb6
    87d4:	d5 5e       	.word 0x5ed5
    87d6:	f4 4e       	.word 0x4ef4
    87d8:	13 3e       	.word 0x3e13
    87da:	32 2e       	.word 0x2e32
    87dc:	51 1e       	.word 0x1e51
    87de:	70 0e       	.word 0xe70
    87e0:	9f ff       	.word 0xff9f
    87e2:	be ef       	.word 0xefbe
    87e4:	dd df       	.word 0xdfdd
    87e6:	fc cf       	.word 0xcffc
    87e8:	1b bf       	.word 0xbf1b
    87ea:	3a af       	.word 0xaf3a
    87ec:	59 9f       	.word 0x9f59
    87ee:	78 8f       	.word 0x8f78
    87f0:	88 91       	.word 0x9188
    87f2:	a9 81       	.word 0x81a9
    87f4:	ca b1       	.word 0xb1ca
    87f6:	eb a1       	.word 0xa1eb
    87f8:	0c d1       	.word 0xd10c
    87fa:	2d c1       	.word 0xc12d
    87fc:	4e f1       	.word 0xf14e
    87fe:	6f e1       	.word 0xe16f
    8800:	80 10       	.word 0x1080
    8802:	a1 00       	.word 0xa1
    8804:	c2 30       	.word 0x30c2
    8806:	e3 20       	.word 0x20e3
    8808:	04 50       	.word 0x5004
    880a:	25 40       	.word 0x4025
    880c:	46 70       	.word 0x7046
    880e:	67 60       	.word 0x6067
    8810:	b9 83       	.word 0x83b9
    8812:	98 93       	.word 0x9398
    8814:	fb a3       	.word 0xa3fb
    8816:	da b3       	.word 0xb3da
    8818:	3d c3       	.word 0xc33d
    881a:	1c d3       	.word 0xd31c
    881c:	7f e3       	.word 0xe37f
    881e:	5e f3       	.word 0xf35e
    8820:	b1 02       	.word 0x2b1
    8822:	90 12       	.word 0x1290
    8824:	f3 22       	.word 0x22f3
    8826:	d2 32       	.word 0x32d2
    8828:	35 42       	.word 0x4235
    882a:	14 52       	.word 0x5214
    882c:	77 62       	.word 0x6277
    882e:	56 72       	.word 0x7256
    8830:	ea b5       	.word 0xb5ea
    8832:	cb a5       	.word 0xa5cb
    8834:	a8 95       	.word 0x95a8
    8836:	89 85       	.word 0x8589
    8838:	6e f5       	.word 0xf56e
    883a:	4f e5       	.word 0xe54f
    883c:	2c d5       	.word 0xd52c
    883e:	0d c5       	.word 0xc50d
    8840:	e2 34       	.word 0x34e2
    8842:	c3 24       	.word 0x24c3
    8844:	a0 14       	.word 0x14a0
    8846:	81 04       	.word 0x481
    8848:	66 74       	.word 0x7466
    884a:	47 64       	.word 0x6447
    884c:	24 54       	.word 0x5424
    884e:	05 44       	.word 0x4405
    8850:	db a7       	.word 0xa7db
    8852:	fa b7       	.word 0xb7fa
    8854:	99 87       	.word 0x8799
    8856:	b8 97       	.word 0x97b8
    8858:	5f e7       	.word 0xe75f
    885a:	7e f7       	.word 0xf77e
    885c:	1d c7       	.word 0xc71d
    885e:	3c d7       	.word 0xd73c
    8860:	d3 26       	.word 0x26d3
    8862:	f2 36       	.word 0x36f2
    8864:	91 06       	.word 0x691
    8866:	b0 16       	.word 0x16b0
    8868:	57 66       	.word 0x6657
    886a:	76 76       	.word 0x7676
    886c:	15 46       	.word 0x4615
    886e:	34 56       	.word 0x5634
    8870:	4c d9       	.word 0xd94c
    8872:	6d c9       	.word 0xc96d
    8874:	0e f9       	.word 0xf90e
    8876:	2f e9       	.word 0xe92f
    8878:	c8 99       	.word 0x99c8
    887a:	e9 89       	.word 0x89e9
    887c:	8a b9       	.word 0xb98a
    887e:	ab a9       	.word 0xa9ab
    8880:	44 58       	.word 0x5844
    8882:	65 48       	.word 0x4865
    8884:	06 78       	.word 0x7806
    8886:	27 68       	.word 0x6827
    8888:	c0 18       	.word 0x18c0
    888a:	e1 08       	.word 0x8e1
    888c:	82 38       	.word 0x3882
    888e:	a3 28       	.word 0x28a3
    8890:	7d cb       	.word 0xcb7d
    8892:	5c db       	.word 0xdb5c
    8894:	3f eb       	.word 0xeb3f
    8896:	1e fb       	.word 0xfb1e
    8898:	f9 8b       	.word 0x8bf9
    889a:	d8 9b       	.word 0x9bd8
    889c:	bb ab       	.word 0xabbb
    889e:	9a bb       	.word 0xbb9a
    88a0:	75 4a       	.word 0x4a75
    88a2:	54 5a       	.word 0x5a54
    88a4:	37 6a       	.word 0x6a37
    88a6:	16 7a       	.word 0x7a16
    88a8:	f1 0a       	.word 0xaf1
    88aa:	d0 1a       	.word 0x1ad0
    88ac:	b3 2a       	.word 0x2ab3
    88ae:	92 3a       	.word 0x3a92
    88b0:	2e fd       	.word 0xfd2e
    88b2:	0f ed       	.word 0xed0f
    88b4:	6c dd       	.word 0xdd6c
    88b6:	4d cd       	.word 0xcd4d
    88b8:	aa bd       	.word 0xbdaa
    88ba:	8b ad       	.word 0xad8b
    88bc:	e8 9d       	.word 0x9de8
    88be:	c9 8d       	.word 0x8dc9
    88c0:	26 7c       	.word 0x7c26
    88c2:	07 6c       	.word 0x6c07
    88c4:	64 5c       	.word 0x5c64
    88c6:	45 4c       	.word 0x4c45
    88c8:	a2 3c       	.word 0x3ca2
    88ca:	83 2c       	.word 0x2c83
    88cc:	e0 1c       	.word 0x1ce0
    88ce:	c1 0c       	.word 0xcc1
    88d0:	1f ef       	.word 0xef1f
    88d2:	3e ff       	.word 0xff3e
    88d4:	5d cf       	.word 0xcf5d
    88d6:	7c df       	.word 0xdf7c
    88d8:	9b af       	.word 0xaf9b
    88da:	ba bf       	.word 0xbfba
    88dc:	d9 8f       	.word 0x8fd9
    88de:	f8 9f       	.word 0x9ff8
    88e0:	17 6e       	.word 0x6e17
    88e2:	36 7e       	.word 0x7e36
    88e4:	55 4e       	.word 0x4e55
    88e6:	74 5e       	.word 0x5e74
    88e8:	93 2e       	.word 0x2e93
    88ea:	b2 3e       	.word 0x3eb2
    88ec:	d1 0e       	.word 0xed1
    88ee:	f0 1e       	.word 0x1ef0

000088f0 <_gAS3993FwInfo>:
    88f0:	41 53       	.word 0x5341
    88f2:	33 39       	.word 0x3933
    88f4:	39 33       	.word 0x3339
    88f6:	20 52       	.word 0x5220
    88f8:	65 61       	.word 0x6165
    88fa:	64 65       	.word 0x6564
    88fc:	72 20       	.word 0x2072
    88fe:	46 69       	.word 0x6946
    8900:	72 6d       	.word 0x6d72
    8902:	77 61       	.word 0x6177
    8904:	72 65       	.word 0x6572
    8906:	7c 7c       	.word 0x7c7c
    8908:	41 53       	.word 0x5341
    890a:	33 39       	.word 0x3933
    890c:	39 33       	.word 0x3339
    890e:	20 46       	.word 0x4620
    8910:	45 52       	.word 0x5245
    8912:	4d 49       	.word 0x494d
    8914:	20 52       	.word 0x5220
    8916:	65 61       	.word 0x6165
    8918:	64 65       	.word 0x6564
    891a:	72 20       	.word 0x2072
    891c:	48 61       	.word 0x6148
    891e:	72 64       	.word 0x6472
    8920:	77 61       	.word 0x6177
    8922:	72 65       	.word 0x6572
    8924:	20 31       	.word 0x3120
    8926:	2e 30       	.word 0x302e
    8928:	00 41       	.word 0x4100

00008929 <_gLogStartup>:
    8929:	00 00       	.word 0
    892b:	00 00       	.word 0
    892d:	00 00       	.word 0
    892f:	00 00       	.word 0
    8931:	00 00       	.word 0
    8933:	00 00       	.word 0
    8935:	00 00       	.word 0
    8937:	00 00       	.word 0
    8939:	00 00       	.word 0
    893b:	00 00       	.word 0
    893d:	00 00       	.word 0
    893f:	00 00       	.word 0
    8941:	00 00       	.word 0
    8943:	00 00       	.word 0
    8945:	00 00       	.word 0
    8947:	00 00       	.word 0
    8949:	00 00       	.word 0
    894b:	00 00       	.word 0
    894d:	00 00       	.word 0
    894f:	00 00       	.word 0
    8951:	00 00       	.word 0
    8953:	00 00       	.word 0
    8955:	00 00       	.word 0
    8957:	00 00       	.word 0
    8959:	00 00       	.word 0
    895b:	00 00       	.word 0
    895d:	00 00       	.word 0
    895f:	00 00       	.word 0
    8961:	00 00       	.word 0
    8963:	00 00       	.word 0
    8965:	00 00       	.word 0
    8967:	00 00       	.word 0
    8969:	00 00       	.word 0
    896b:	00 00       	.word 0
    896d:	00 00       	.word 0
    896f:	00 00       	.word 0
    8971:	00 00       	.word 0
	...

00008974 <_firmwareNumber>:
    8974:	00 04       	.word 0x400
    8976:	02 00       	.word 0x2

00008978 <_codes>:
    8978:	bf af       	.word 0xafbf
    897a:	a7 a3       	.word 0xa3a7
    897c:	a1 a0       	.word 0xa0a1
    897e:	b0 b8       	.word 0xb8b0
    8980:	bc be       	.word 0xbebc
    8982:	41 88       	.word 0x8841
    8984:	8a 64       	.word 0x648a
    8986:	20 82       	.word 0x8220

00008988 <.LC0>:
    8988:	61 70       	.word 0x7061
    898a:	70 6c       	.word 0x6c70
    898c:	46 69       	.word 0x6946
    898e:	72 6d       	.word 0x6d72
    8990:	77 61       	.word 0x6177
    8992:	72 65       	.word 0x6572
    8994:	49 6e       	.word 0x6e49
    8996:	66 6f       	.word 0x6f66
    8998:	72 6d       	.word 0x6d72
    899a:	61 74       	.word 0x7461
    899c:	69 6f       	.word 0x6f69
    899e:	6e 20       	.word 0x206e
    89a0:	6e 6f       	.word 0x6f6e
    89a2:	74 20       	.word 0x2074
    89a4:	73 75       	.word 0x7573
    89a6:	70 70       	.word 0x7070
    89a8:	6f 72       	.word 0x726f
    89aa:	74 65       	.word 0x6574
    89ac:	64 00       	.word 0x64

000089ae <_spiController>:
    89ae:	40 02       	.word 0x240
    89b0:	42 02       	.word 0x242
    89b2:	44 02       	.word 0x244
    89b4:	48 02       	.word 0x248
    89b6:	60 02       	.word 0x260
    89b8:	62 02       	.word 0x262
    89ba:	64 02       	.word 0x264
    89bc:	68 02       	.word 0x268
Disassembly of section .text:

000009be <_continueCheckTimeout>:
     9be:	00 00 fa    	lnk       #0x0
     9c0:	62 08 e2    	cp0.w     0x862
     9c2:	09 00 32    	bra       Z, 0x9d6 <.L2>
     9c4:	81 1f 07    	rcall     0x48c8 <_slowTimerValue>
     9c6:	11 43 80    	mov.w     0x862, w1
     9c8:	81 0f 50    	sub.w     w0, w1, [w15]
     9ca:	05 00 39    	bra       NC, 0x9d6 <.L2>
     9cc:	81 1f 07    	rcall     0x48d0 <_slowTimerStop>
     9ce:	10 c0 b3    	mov.b     #0x1, w0
     9d0:	64 e8 b7    	mov.b     WREG, 0x864
     9d2:	00 00 eb    	clr.w     w0
     9d4:	01 00 37    	bra       0x9d8 <.L5>

000009d6 <.L2>:
     9d6:	10 00 20    	mov.w     #0x1, w0

000009d8 <.L5>:
     9d8:	00 80 fa    	ulnk      
     9da:	00 00 06    	return    

000009dc <_checkAndSetSession>:
     9dc:	00 00 fa    	lnk       #0x0
     9de:	88 1f 78    	mov.w     w8, [w15++]
     9e0:	00 44 78    	mov.b     w0, w8
     9e2:	02 c8 bf    	mov.b     0x802, WREG
     9e4:	88 4f 50    	sub.b     w0, w8, [w15]
     9e6:	13 00 32    	bra       Z, 0xa0e <.L16>
     9e8:	e1 4f 50    	sub.b     w0, #0x1, [w15]
     9ea:	03 00 32    	bra       Z, 0x9f2 <.L11>
     9ec:	e2 4f 50    	sub.b     w0, #0x2, [w15]
     9ee:	04 00 3a    	bra       NZ, 0x9f8 <.L10>
     9f0:	02 00 37    	bra       0x9f6 <.L12>

000009f2 <.L11>:
     9f2:	38 0e 07    	rcall     0x2664 <_gen2Close>
     9f4:	01 00 37    	bra       0x9f8 <.L10>

000009f6 <.L12>:
     9f6:	fe 13 07    	rcall     0x31f4 <_iso6bClose>

000009f8 <.L10>:
     9f8:	e1 4f 54    	sub.b     w8, #0x1, [w15]
     9fa:	03 00 32    	bra       Z, 0xa02 <.L14>
     9fc:	e2 4f 54    	sub.b     w8, #0x2, [w15]
     9fe:	05 00 3a    	bra       NZ, 0xa0a <.L13>
     a00:	03 00 37    	bra       0xa08 <.L15>

00000a02 <.L14>:
     a02:	60 dd 21    	mov.w     #0x1dd6, w0
     a04:	2b 0e 07    	rcall     0x265c <_gen2Open>
     a06:	01 00 37    	bra       0xa0a <.L13>

00000a08 <.L15>:
     a08:	da 13 07    	rcall     0x31be <_iso6bOpen>

00000a0a <.L13>:
     a0a:	08 00 78    	mov.w     w8, w0
     a0c:	02 e8 b7    	mov.b     WREG, 0x802

00000a0e <.L16>:
     a0e:	4f 04 78    	mov.w     [--w15], w8
     a10:	00 80 fa    	ulnk      
     a12:	00 00 06    	return    

00000a14 <_callWrongCommand>:
     a14:	00 00 fa    	lnk       #0x0
     a16:	02 00 07    	rcall     0xa1c <_wrongCommand>
     a18:	00 80 fa    	ulnk      
     a1a:	00 00 06    	return    

00000a1c <_wrongCommand>:
     a1c:	00 00 fa    	lnk       #0x0
     a1e:	b0 cf b3    	mov.b     #0xfb, w0
     a20:	74 e8 b7    	mov.b     WREG, 0x874
     a22:	00 80 fa    	ulnk      
     a24:	00 00 06    	return    

00000a26 <_performSelects>:
     a26:	00 00 fa    	lnk       #0x0
     a28:	88 9f be    	mov.d     w8, [w15++]
     a2a:	08 08 e2    	cp0.w     0x808
     a2c:	09 00 34    	bra       LE, 0xa40 <.L25>
     a2e:	80 04 eb    	clr.w     w9
     a30:	a8 80 20    	mov.w     #0x80a, w8

00000a32 <.L24>:
     a32:	08 00 78    	mov.w     w8, w0
     a34:	9e 08 07    	rcall     0x1b72 <_gen2Select>
     a36:	89 04 e8    	inc.w     w9, w9
     a38:	a8 02 b0    	add.w     #0x2a, w8
     a3a:	40 40 80    	mov.w     0x808, w0
     a3c:	80 8f 54    	sub.w     w9, w0, [w15]
     a3e:	f9 ff 35    	bra       LT, 0xa32 <.L24>

00000a40 <.L25>:
     a40:	4f 04 be    	mov.d     [--w15], w8
     a42:	00 80 fa    	ulnk      
     a44:	00 00 06    	return    

00000a46 <_powerAndSelectTag>:
     a46:	00 00 fa    	lnk       #0x0
     a48:	ee ff 07    	rcall     0xa26 <_performSelects>
     a4a:	00 03 eb    	clr.w     w6
     a4c:	86 02 78    	mov.w     w6, w5
     a4e:	14 00 20    	mov.w     #0x1, w4
     a50:	e3 9b 20    	mov.w     #0x9be, w3
     a52:	06 41 78    	mov.b     w6, w2
     a54:	84 40 78    	mov.b     w4, w1
     a56:	00 8b 20    	mov.w     #0x8b0, w0
     a58:	91 0c 07    	rcall     0x237c <_gen2SearchForTagsAutoAck>
     a5a:	80 40 78    	mov.b     w0, w1
     a5c:	5e e8 b7    	mov.b     WREG, 0x85e
     a5e:	00 04 e0    	cp0.b     w0
     a60:	02 00 32    	bra       Z, 0xa66 <.L28>
     a62:	00 8b 20    	mov.w     #0x8b0, w0
     a64:	c0 8f 88    	mov.w     w0, 0x11f8

00000a66 <.L28>:
     a66:	01 80 fb    	ze        w1, w0
     a68:	00 80 fa    	ulnk      
     a6a:	00 00 06    	return    

00000a6c <_callAntennaPower>:
     a6c:	00 00 fa    	lnk       #0x0
     a6e:	02 00 07    	rcall     0xa74 <_antennaPower>
     a70:	00 80 fa    	ulnk      
     a72:	00 00 06    	return    

00000a74 <_antennaPower>:
     a74:	00 00 fa    	lnk       #0x0
     a76:	60 43 80    	mov.w     0x86c, w0
     a78:	10 40 78    	mov.b     [w0], w0
     a7a:	00 04 e0    	cp0.b     w0
     a7c:	03 00 32    	bra       Z, 0xa84 <.L35>
     a7e:	e1 4f 40    	add.b     w0, #0x1, [w15]
     a80:	0c 00 3a    	bra       NZ, 0xa9a <.L39>
     a82:	06 00 37    	bra       0xa90 <.L36>

00000a84 <.L35>:
     a84:	ce 06 07    	rcall     0x1822 <_powerUpReader>
     a86:	00 40 eb    	clr.b     w0
     a88:	51 11 07    	rcall     0x2d2c <_as3993AntennaPower>
     a8a:	b6 06 07    	rcall     0x17f8 <_powerDownReader>
     a8c:	74 68 ef    	clr.b     0x874
     a8e:	07 00 37    	bra       0xa9e <.L37>

00000a90 <.L36>:
     a90:	c8 06 07    	rcall     0x1822 <_powerUpReader>
     a92:	10 c0 b3    	mov.b     #0x1, w0
     a94:	4b 11 07    	rcall     0x2d2c <_as3993AntennaPower>
     a96:	74 68 ef    	clr.b     0x874
     a98:	02 00 37    	bra       0xa9e <.L37>

00000a9a <.L39>:
     a9a:	90 cf b3    	mov.b     #0xf9, w0
     a9c:	74 e8 b7    	mov.b     WREG, 0x874

00000a9e <.L37>:
     a9e:	80 43 80    	mov.w     0x870, w0
     aa0:	00 48 eb    	clr.b     [w0]
     aa2:	10 00 20    	mov.w     #0x1, w0
     aa4:	90 43 88    	mov.w     w0, 0x872
     aa6:	00 80 fa    	ulnk      
     aa8:	00 00 06    	return    

00000aaa <_callAntennaTuner>:
     aaa:	00 00 fa    	lnk       #0x0
     aac:	02 00 07    	rcall     0xab2 <_antennaTuner>
     aae:	00 80 fa    	ulnk      
     ab0:	00 00 06    	return    

00000ab2 <_antennaTuner>:
     ab2:	00 00 fa    	lnk       #0x0
     ab4:	80 43 80    	mov.w     0x870, w0
     ab6:	80 40 eb    	clr.b     w1
     ab8:	01 58 78    	mov.b     w1, [w0++]
     aba:	01 58 78    	mov.b     w1, [w0++]
     abc:	01 58 78    	mov.b     w1, [w0++]
     abe:	01 58 78    	mov.b     w1, [w0++]
     ac0:	01 58 78    	mov.b     w1, [w0++]
     ac2:	01 48 78    	mov.b     w1, [w0]
     ac4:	60 00 20    	mov.w     #0x6, w0
     ac6:	90 43 88    	mov.w     w0, 0x872
     ac8:	b0 cf b3    	mov.b     #0xfb, w0
     aca:	74 e8 b7    	mov.b     WREG, 0x874
     acc:	00 80 fa    	ulnk      
     ace:	00 00 06    	return    

00000ad0 <_callAutoTuner>:
     ad0:	00 00 fa    	lnk       #0x0
     ad2:	a7 06 07    	rcall     0x1822 <_powerUpReader>
     ad4:	03 00 07    	rcall     0xadc <_autoTuner>
     ad6:	90 06 07    	rcall     0x17f8 <_powerDownReader>
     ad8:	00 80 fa    	ulnk      
     ada:	00 00 06    	return    

00000adc <_autoTuner>:
     adc:	00 00 fa    	lnk       #0x0
     ade:	72 28 ef    	clr.w     0x872
     ae0:	b0 cf b3    	mov.b     #0xfb, w0
     ae2:	74 e8 b7    	mov.b     WREG, 0x874
     ae4:	00 80 fa    	ulnk      
     ae6:	00 00 06    	return    

00000ae8 <_callTunerTable>:
     ae8:	00 00 fa    	lnk       #0x0
     aea:	02 00 07    	rcall     0xaf0 <_tunerTable>
     aec:	00 80 fa    	ulnk      
     aee:	00 00 06    	return    

00000af0 <_tunerTable>:
     af0:	00 00 fa    	lnk       #0x0
     af2:	80 43 80    	mov.w     0x870, w0
     af4:	80 40 eb    	clr.b     w1
     af6:	01 58 78    	mov.b     w1, [w0++]
     af8:	01 58 78    	mov.b     w1, [w0++]
     afa:	01 48 78    	mov.b     w1, [w0]
     afc:	60 00 20    	mov.w     #0x6, w0
     afe:	90 43 88    	mov.w     w0, 0x872
     b00:	b0 cf b3    	mov.b     #0xfb, w0
     b02:	74 e8 b7    	mov.b     WREG, 0x874
     b04:	80 43 80    	mov.w     0x870, w0
     b06:	00 c8 eb    	setm.b    [w0]
     b08:	80 43 80    	mov.w     0x870, w0
     b0a:	11 40 98    	mov.b     w1, [w0+1]
     b0c:	00 80 fa    	ulnk      
     b0e:	00 00 06    	return    

00000b10 <_callReaderConfig>:
     b10:	00 00 fa    	lnk       #0x0
     b12:	02 00 07    	rcall     0xb18 <_readerConfig>
     b14:	00 80 fa    	ulnk      
     b16:	00 00 06    	return    

00000b18 <_readerConfig>:
     b18:	00 00 fa    	lnk       #0x0
     b1a:	88 1f 78    	mov.w     w8, [w15++]
     b1c:	60 43 80    	mov.w     0x86c, w0
     b1e:	00 44 eb    	clr.b     w8
     b20:	10 04 e0    	cp0.b     [w0]
     b22:	0a 00 32    	bra       Z, 0xb38 <.L57>
     b24:	10 40 90    	mov.b     [w0+1], w0
     b26:	98 cf b3    	mov.b     #0xf9, w8
     b28:	e3 4f 50    	sub.b     w0, #0x3, [w15]
     b2a:	06 00 3e    	bra       GTU, 0xb38 <.L57>
     b2c:	7a 06 07    	rcall     0x1822 <_powerUpReader>
     b2e:	60 43 80    	mov.w     0x86c, w0
     b30:	10 40 90    	mov.b     [w0+1], w0
     b32:	6a e8 b7    	mov.b     WREG, 0x86a
     b34:	61 06 07    	rcall     0x17f8 <_powerDownReader>
     b36:	00 44 eb    	clr.b     w8

00000b38 <.L57>:
     b38:	80 43 80    	mov.w     0x870, w0
     b3a:	a2 00 20    	mov.w     #0xa, w2
     b3c:	f1 0f 20    	mov.w     #0xff, w1
     b3e:	cb fd 07    	rcall     0x6d6
     b40:	d1 c5 b3    	mov.b     #0x5d, w1
     b42:	80 43 80    	mov.w     0x870, w0
     b44:	01 48 78    	mov.b     w1, [w0]
     b46:	80 43 80    	mov.w     0x870, w0
     b48:	81 87 20    	mov.w     #0x878, w1
     b4a:	91 40 78    	mov.b     [w1], w1
     b4c:	11 40 98    	mov.b     w1, [w0+1]
     b4e:	00 41 eb    	clr.b     w2
     b50:	80 43 80    	mov.w     0x870, w0
     b52:	22 40 98    	mov.b     w2, [w0+2]
     b54:	11 c0 b3    	mov.b     #0x1, w1
     b56:	80 43 80    	mov.w     0x870, w0
     b58:	31 40 98    	mov.b     w1, [w0+3]
     b5a:	80 43 80    	mov.w     0x870, w0
     b5c:	42 40 98    	mov.b     w2, [w0+4]
     b5e:	80 43 80    	mov.w     0x870, w0
     b60:	52 40 98    	mov.b     w2, [w0+5]
     b62:	80 43 80    	mov.w     0x870, w0
     b64:	62 40 98    	mov.b     w2, [w0+6]
     b66:	80 43 80    	mov.w     0x870, w0
     b68:	a1 86 20    	mov.w     #0x86a, w1
     b6a:	91 40 78    	mov.b     [w1], w1
     b6c:	71 40 98    	mov.b     w1, [w0+7]
     b6e:	21 c0 b3    	mov.b     #0x2, w1
     b70:	80 43 80    	mov.w     0x870, w0
     b72:	01 48 98    	mov.b     w1, [w0+8]
     b74:	90 43 80    	mov.w     0x872, w0
     b76:	ea 0f 50    	sub.w     w0, #0xa, [w15]
     b78:	02 00 36    	bra       LEU, 0xb7e <.L60>
     b7a:	a0 00 20    	mov.w     #0xa, w0
     b7c:	90 43 88    	mov.w     w0, 0x872

00000b7e <.L60>:
     b7e:	08 00 78    	mov.w     w8, w0
     b80:	74 e8 b7    	mov.b     WREG, 0x874
     b82:	4f 04 78    	mov.w     [--w15], w8
     b84:	00 80 fa    	ulnk      
     b86:	00 00 06    	return    

00000b88 <_writeRegister>:
     b88:	00 00 fa    	lnk       #0x0
     b8a:	88 9f be    	mov.d     w8, [w15++]
     b8c:	8a 9f be    	mov.d     w10, [w15++]
     b8e:	00 44 78    	mov.b     w0, w8
     b90:	81 44 78    	mov.b     w1, w9
     b92:	82 05 78    	mov.w     w2, w11
     b94:	03 05 78    	mov.w     w3, w10
     b96:	45 06 07    	rcall     0x1822 <_powerUpReader>
     b98:	08 04 e0    	cp0.b     w8
     b9a:	04 00 35    	bra       LT, 0xba4 <.L64>
     b9c:	89 40 78    	mov.b     w9, w1
     b9e:	08 40 78    	mov.b     w8, w0
     ba0:	a9 0e 07    	rcall     0x28f4 <_as3993SingleWrite>
     ba2:	02 00 37    	bra       0xba8 <.L66>

00000ba4 <.L64>:
     ba4:	08 40 78    	mov.b     w8, w0
     ba6:	3e 0e 07    	rcall     0x2824 <_as3993SingleCommand>

00000ba8 <.L66>:
     ba8:	00 4d eb    	clr.b     [w10]
     baa:	10 00 20    	mov.w     #0x1, w0
     bac:	80 0d 78    	mov.w     w0, [w11]
     bae:	00 00 eb    	clr.w     w0
     bb0:	4f 05 be    	mov.d     [--w15], w10
     bb2:	4f 04 be    	mov.d     [--w15], w8
     bb4:	00 80 fa    	ulnk      
     bb6:	00 00 06    	return    

00000bb8 <_readRegister>:
     bb8:	00 00 fa    	lnk       #0x0
     bba:	88 9f be    	mov.d     w8, [w15++]
     bbc:	8a 1f 78    	mov.w     w10, [w15++]
     bbe:	00 44 78    	mov.b     w0, w8
     bc0:	01 05 78    	mov.w     w1, w10
     bc2:	82 04 78    	mov.w     w2, w9
     bc4:	2e 06 07    	rcall     0x1822 <_powerUpReader>
     bc6:	08 40 78    	mov.b     w8, w0
     bc8:	5f 0e 07    	rcall     0x2888 <_as3993SingleRead>
     bca:	80 4c 78    	mov.b     w0, [w9]
     bcc:	10 00 20    	mov.w     #0x1, w0
     bce:	00 0d 78    	mov.w     w0, [w10]
     bd0:	13 06 07    	rcall     0x17f8 <_powerDownReader>
     bd2:	00 00 eb    	clr.w     w0
     bd4:	4f 05 78    	mov.w     [--w15], w10
     bd6:	4f 04 be    	mov.d     [--w15], w8
     bd8:	00 80 fa    	ulnk      
     bda:	00 00 06    	return    

00000bdc <_callConfigTxRx>:
     bdc:	00 00 fa    	lnk       #0x0
     bde:	21 06 07    	rcall     0x1822 <_powerUpReader>
     be0:	03 00 07    	rcall     0xbe8 <_configTxRx>
     be2:	0a 06 07    	rcall     0x17f8 <_powerDownReader>
     be4:	00 80 fa    	ulnk      
     be6:	00 00 06    	return    

00000be8 <_configTxRx>:
     be8:	00 00 fa    	lnk       #0x0
     bea:	88 1f 78    	mov.w     w8, [w15++]
     bec:	60 43 80    	mov.w     0x86c, w0
     bee:	10 04 e0    	cp0.b     [w0]
     bf0:	02 00 32    	bra       Z, 0xbf6 <.L73>
     bf2:	10 40 90    	mov.b     [w0+1], w0
     bf4:	fb 10 07    	rcall     0x2dec <_as3993SetSensitivity>

00000bf6 <.L73>:
     bf6:	40 00 20    	mov.w     #0x4, w0
     bf8:	90 43 88    	mov.w     w0, 0x872
     bfa:	88 43 80    	mov.w     0x870, w8
     bfc:	08 04 e8    	inc.w     w8, w8
     bfe:	d1 10 07    	rcall     0x2da2 <_as3993GetSensitivity>
     c00:	00 4c 78    	mov.b     w0, [w8]
     c02:	74 68 ef    	clr.b     0x874
     c04:	4f 04 78    	mov.w     [--w15], w8
     c06:	00 80 fa    	ulnk      
     c08:	00 00 06    	return    

00000c0a <_configGen2>:
     c0a:	00 00 fa    	lnk       #0x0
     c0c:	88 1f 78    	mov.w     w8, [w15++]
     c0e:	20 80 20    	mov.w     #0x802, w0
     c10:	11 c0 b3    	mov.b     #0x1, w1
     c12:	90 cf 10    	subr.b    w1, [w0], [w15]
     c14:	01 00 3a    	bra       NZ, 0xc18 <.L77>
     c16:	02 68 ef    	clr.b     0x802

00000c18 <.L77>:
     c18:	61 43 80    	mov.w     0x86c, w1
     c1a:	11 04 e0    	cp0.b     [w1]
     c1c:	02 00 32    	bra       Z, 0xc22 <.L79>
     c1e:	11 40 90    	mov.b     [w1+1], w0
     c20:	d7 fd b7    	mov.b     WREG, 0x1dd7

00000c22 <.L79>:
     c22:	21 40 90    	mov.b     [w1+2], w0
     c24:	00 04 e0    	cp0.b     w0
     c26:	02 00 32    	bra       Z, 0xc2c <.L81>
     c28:	31 40 90    	mov.b     [w1+3], w0
     c2a:	d8 fd b7    	mov.b     WREG, 0x1dd8

00000c2c <.L81>:
     c2c:	41 40 90    	mov.b     [w1+4], w0
     c2e:	00 04 e0    	cp0.b     w0
     c30:	02 00 32    	bra       Z, 0xc36 <.L83>
     c32:	51 40 90    	mov.b     [w1+5], w0
     c34:	db fd b7    	mov.b     WREG, 0x1ddb

00000c36 <.L83>:
     c36:	61 40 90    	mov.b     [w1+6], w0
     c38:	00 04 e0    	cp0.b     w0
     c3a:	02 00 32    	bra       Z, 0xc40 <.L85>
     c3c:	71 40 90    	mov.b     [w1+7], w0
     c3e:	d9 fd b7    	mov.b     WREG, 0x1dd9

00000c40 <.L85>:
     c40:	01 48 90    	mov.b     [w1+8], w0
     c42:	00 04 e0    	cp0.b     w0
     c44:	02 00 32    	bra       Z, 0xc4a <.L87>
     c46:	11 48 90    	mov.b     [w1+9], w0
     c48:	d6 fd b7    	mov.b     WREG, 0x1dd6

00000c4a <.L87>:
     c4a:	21 48 90    	mov.b     [w1+10], w0
     c4c:	00 04 e0    	cp0.b     w0
     c4e:	02 00 32    	bra       Z, 0xc54 <.L89>
     c50:	31 48 90    	mov.b     [w1+11], w0
     c52:	dd fd b7    	mov.b     WREG, 0x1ddd

00000c54 <.L89>:
     c54:	41 48 90    	mov.b     [w1+12], w0
     c56:	00 04 e0    	cp0.b     w0
     c58:	02 00 32    	bra       Z, 0xc5e <.L91>
     c5a:	51 48 90    	mov.b     [w1+13], w0
     c5c:	da fd b7    	mov.b     WREG, 0x1dda

00000c5e <.L91>:
     c5e:	61 48 90    	mov.b     [w1+14], w0
     c60:	00 04 e0    	cp0.b     w0
     c62:	02 00 32    	bra       Z, 0xc68 <.L93>
     c64:	71 48 90    	mov.b     [w1+15], w0
     c66:	dc fd b7    	mov.b     WREG, 0x1ddc

00000c68 <.L93>:
     c68:	80 43 80    	mov.w     0x870, w0
     c6a:	08 01 20    	mov.w     #0x10, w8
     c6c:	08 01 78    	mov.w     w8, w2
     c6e:	80 00 eb    	clr.w     w1
     c70:	32 fd 07    	rcall     0x6d6
     c72:	98 43 88    	mov.w     w8, 0x872
     c74:	74 68 ef    	clr.b     0x874
     c76:	80 43 80    	mov.w     0x870, w0
     c78:	71 dd 21    	mov.w     #0x1dd7, w1
     c7a:	91 40 78    	mov.b     [w1], w1
     c7c:	11 40 98    	mov.b     w1, [w0+1]
     c7e:	80 43 80    	mov.w     0x870, w0
     c80:	81 dd 21    	mov.w     #0x1dd8, w1
     c82:	91 40 78    	mov.b     [w1], w1
     c84:	31 40 98    	mov.b     w1, [w0+3]
     c86:	80 43 80    	mov.w     0x870, w0
     c88:	b1 dd 21    	mov.w     #0x1ddb, w1
     c8a:	91 40 78    	mov.b     [w1], w1
     c8c:	51 40 98    	mov.b     w1, [w0+5]
     c8e:	80 43 80    	mov.w     0x870, w0
     c90:	91 dd 21    	mov.w     #0x1dd9, w1
     c92:	91 40 78    	mov.b     [w1], w1
     c94:	71 40 98    	mov.b     w1, [w0+7]
     c96:	80 43 80    	mov.w     0x870, w0
     c98:	61 dd 21    	mov.w     #0x1dd6, w1
     c9a:	91 40 78    	mov.b     [w1], w1
     c9c:	11 48 98    	mov.b     w1, [w0+9]
     c9e:	80 43 80    	mov.w     0x870, w0
     ca0:	d1 dd 21    	mov.w     #0x1ddd, w1
     ca2:	91 40 78    	mov.b     [w1], w1
     ca4:	31 48 98    	mov.b     w1, [w0+11]
     ca6:	80 43 80    	mov.w     0x870, w0
     ca8:	a1 dd 21    	mov.w     #0x1dda, w1
     caa:	91 40 78    	mov.b     [w1], w1
     cac:	51 48 98    	mov.b     w1, [w0+13]
     cae:	80 43 80    	mov.w     0x870, w0
     cb0:	c1 dd 21    	mov.w     #0x1ddc, w1
     cb2:	91 40 78    	mov.b     [w1], w1
     cb4:	71 48 98    	mov.b     w1, [w0+15]
     cb6:	4f 04 78    	mov.w     [--w15], w8
     cb8:	00 80 fa    	ulnk      
     cba:	00 00 06    	return    

00000cbc <_callConfigGen2>:
     cbc:	00 00 fa    	lnk       #0x0
     cbe:	a5 ff 07    	rcall     0xc0a <_configGen2>
     cc0:	00 80 fa    	ulnk      
     cc2:	00 00 06    	return    

00000cc4 <_readRegisters>:
     cc4:	00 00 fa    	lnk       #0x0
     cc6:	88 9f be    	mov.d     w8, [w15++]
     cc8:	8a 9f be    	mov.d     w10, [w15++]
     cca:	80 05 78    	mov.w     w0, w11
     ccc:	01 05 78    	mov.w     w1, w10
     cce:	a9 05 07    	rcall     0x1822 <_powerUpReader>
     cd0:	00 44 eb    	clr.b     w8
     cd2:	88 44 78    	mov.b     w8, w9
     cd4:	02 00 37    	bra       0xcda <.L99>

00000cd6 <.L100>:
     cd6:	ef 4f 54    	sub.b     w8, #0xf, [w15]
     cd8:	13 00 32    	bra       Z, 0xd00 <.L108>

00000cda <.L99>:
     cda:	7e 40 54    	sub.b     w8, #0x1e, w0
     cdc:	e3 4f 50    	sub.b     w0, #0x3, [w15]
     cde:	10 00 36    	bra       LEU, 0xd00 <.L108>
     ce0:	d0 cd b3    	mov.b     #0xdd, w0
     ce2:	00 40 44    	add.b     w8, w0, w0
     ce4:	e5 4f 50    	sub.b     w0, #0x5, [w15]
     ce6:	0c 00 36    	bra       LEU, 0xd00 <.L108>
     ce8:	10 cd b3    	mov.b     #0xd1, w0
     cea:	00 40 44    	add.b     w8, w0, w0
     cec:	e3 4f 50    	sub.b     w0, #0x3, [w15]
     cee:	08 00 36    	bra       LEU, 0xd00 <.L108>
     cf0:	40 c3 b3    	mov.b     #0x34, w0
     cf2:	80 4f 54    	sub.b     w8, w0, [w15]
     cf4:	05 00 32    	bra       Z, 0xd00 <.L108>
     cf6:	08 40 78    	mov.b     w8, w0
     cf8:	c7 0d 07    	rcall     0x2888 <_as3993SingleRead>
     cfa:	89 80 fb    	ze        w9, w1
     cfc:	00 f5 78    	mov.b     w0, [w10+w1]
     cfe:	89 44 e8    	inc.b     w9, w9

00000d00 <.L108>:
     d00:	08 44 e8    	inc.b     w8, w8
     d02:	e0 c3 b3    	mov.b     #0x3e, w0
     d04:	80 4f 54    	sub.b     w8, w0, [w15]
     d06:	e7 ff 36    	bra       LEU, 0xcd6 <.L100>
     d08:	09 80 fb    	ze        w9, w0
     d0a:	80 0d e8    	inc.w     w0, [w11]
     d0c:	75 05 07    	rcall     0x17f8 <_powerDownReader>
     d0e:	00 00 eb    	clr.w     w0
     d10:	4f 05 be    	mov.d     [--w15], w10
     d12:	4f 04 be    	mov.d     [--w15], w8
     d14:	00 80 fa    	ulnk      
     d16:	00 00 06    	return    

00000d18 <_initTagInfo>:
     d18:	00 00 fa    	lnk       #0x0
     d1a:	a2 87 20    	mov.w     #0x87a, w2
     d1c:	e0 97 20    	mov.w     #0x97e, w0
     d1e:	01 00 20    	mov.w     #0x0, w1
     d20:	80 41 eb    	clr.b     w3

00000d22 <.L112>:
     d22:	03 59 78    	mov.b     w3, [w2++]
     d24:	61 00 50    	sub.w     w0, #0x1, w0
     d26:	e0 80 58    	subb.w    w1, #0x0, w1
     d28:	fc ff 3a    	bra       NZ, 0xd22 <.L112>
     d2a:	00 80 fa    	ulnk      
     d2c:	00 00 06    	return    

00000d2e <_callInventory6B>:
     d2e:	08 00 fa    	lnk       #0x8
     d30:	6c 08 ec    	inc.w     0x86c, WREG
     d32:	07 00 09    	repeat    #0x7
     d34:	30 5f 78    	mov.b     [w0++], [w14++]
     d36:	8e 00 b1    	sub.w     #0x8, w14
     d38:	80 00 b1    	sub.w     #0x8, w0
     d3a:	73 05 07    	rcall     0x1822 <_powerUpReader>
     d3c:	20 c0 b3    	mov.b     #0x2, w0
     d3e:	4e fe 07    	rcall     0x9dc <_checkAndSetSession>
     d40:	10 c0 b3    	mov.b     #0x1, w0
     d42:	f4 0f 07    	rcall     0x2d2c <_as3993AntennaPower>
     d44:	60 43 80    	mov.w     0x86c, w0
     d46:	10 4a 90    	mov.b     [w0+9], w4
     d48:	8e 01 78    	mov.w     w14, w3
     d4a:	10 41 78    	mov.b     [w0], w2
     d4c:	d1 c2 b3    	mov.b     #0x2d, w1
     d4e:	a0 87 20    	mov.w     #0x87a, w0
     d50:	54 12 07    	rcall     0x31fa <_iso6bInventoryRound>
     d52:	5e e8 b7    	mov.b     WREG, 0x85e
     d54:	51 05 07    	rcall     0x17f8 <_powerDownReader>
     d56:	80 43 80    	mov.w     0x870, w0
     d58:	e1 85 20    	mov.w     #0x85e, w1
     d5a:	11 48 78    	mov.b     [w1], [w0]
     d5c:	5e c8 bf    	mov.b     0x85e, WREG
     d5e:	00 80 fb    	ze        w0, w0
     d60:	42 40 a9    	bclr.b    0x42, #0x2
     d62:	14 00 34    	bra       LE, 0xd8c <.L118>
     d64:	13 00 20    	mov.w     #0x1, w3
     d66:	66 03 20    	mov.w     #0x36, w6
     d68:	e5 fc 2f    	mov.w     #0xffce, w5
     d6a:	a4 87 20    	mov.w     #0x87a, w4

00000d6c <.L120>:
     d6c:	43 19 dd    	sl.w      w3, #0x3, w2
     d6e:	80 43 80    	mov.w     0x870, w0
     d70:	00 01 41    	add.w     w2, w0, w2
     d72:	67 01 51    	sub.w     w2, #0x7, w2
     d74:	06 98 b9    	mul.ss    w3, w6, w0
     d76:	00 80 42    	add.w     w5, w0, w0
     d78:	04 00 40    	add.w     w0, w4, w0
     d7a:	07 00 09    	repeat    #0x7
     d7c:	30 59 78    	mov.b     [w0++], [w2++]
     d7e:	82 00 b1    	sub.w     #0x8, w2
     d80:	80 00 b1    	sub.w     #0x8, w0
     d82:	83 01 e8    	inc.w     w3, w3
     d84:	5e c8 bf    	mov.b     0x85e, WREG
     d86:	00 80 fb    	ze        w0, w0
     d88:	83 0f 50    	sub.w     w0, w3, [w15]
     d8a:	f0 ff 3d    	bra       GE, 0xd6c <.L120>

00000d8c <.L118>:
     d8c:	74 68 ef    	clr.b     0x874
     d8e:	43 00 dd    	sl.w      w0, #0x3, w0
     d90:	00 00 e8    	inc.w     w0, w0
     d92:	90 43 88    	mov.w     w0, 0x872
     d94:	00 80 fa    	ulnk      
     d96:	00 00 06    	return    

00000d98 <_callReadFromTag6B>:
     d98:	10 00 fa    	lnk       #0x10
     d9a:	88 1f 78    	mov.w     w8, [w15++]
     d9c:	68 04 47    	add.w     w14, #0x8, w8
     d9e:	60 43 80    	mov.w     0x86c, w0
     da0:	07 00 09    	repeat    #0x7
     da2:	30 5c 78    	mov.b     [w0++], [w8++]
     da4:	88 00 b1    	sub.w     #0x8, w8
     da6:	80 00 b1    	sub.w     #0x8, w0
     da8:	3c 05 07    	rcall     0x1822 <_powerUpReader>
     daa:	20 c0 b3    	mov.b     #0x2, w0
     dac:	17 fe 07    	rcall     0x9dc <_checkAndSetSession>
     dae:	10 c0 b3    	mov.b     #0x1, w0
     db0:	bd 0f 07    	rcall     0x2d2c <_as3993AntennaPower>
     db2:	00 e8 23    	mov.w     #0x3e80, w0
     db4:	01 00 20    	mov.w     #0x0, w1
     db6:	bf 1d 07    	rcall     0x4936 <___delay32>
     db8:	60 43 80    	mov.w     0x86c, w0
     dba:	80 48 90    	mov.b     [w0+8], w1
     dbc:	0e 01 78    	mov.w     w14, w2
     dbe:	08 00 78    	mov.w     w8, w0
     dc0:	c0 12 07    	rcall     0x3342 <_iso6bRead>
     dc2:	00 44 78    	mov.b     w0, w8
     dc4:	80 40 eb    	clr.b     w1
     dc6:	01 40 78    	mov.b     w1, w0
     dc8:	95 0d 07    	rcall     0x28f4 <_as3993SingleWrite>
     dca:	16 05 07    	rcall     0x17f8 <_powerDownReader>
     dcc:	08 00 78    	mov.w     w8, w0
     dce:	74 e8 b7    	mov.b     WREG, 0x874
     dd0:	80 00 20    	mov.w     #0x8, w0
     dd2:	90 43 88    	mov.w     w0, 0x872
     dd4:	80 43 80    	mov.w     0x870, w0
     dd6:	07 00 09    	repeat    #0x7
     dd8:	3e 58 78    	mov.b     [w14++], [w0++]
     dda:	80 00 b1    	sub.w     #0x8, w0
     ddc:	8e 00 b1    	sub.w     #0x8, w14
     dde:	4f 04 78    	mov.w     [--w15], w8
     de0:	00 80 fa    	ulnk      
     de2:	00 00 06    	return    

00000de4 <_callWriteToTag6B>:
     de4:	0a 00 fa    	lnk       #0xa
     de6:	88 1f 78    	mov.w     w8, [w15++]
     de8:	0e 04 e8    	inc.w     w14, w8
     dea:	60 43 80    	mov.w     0x86c, w0
     dec:	07 00 09    	repeat    #0x7
     dee:	30 5c 78    	mov.b     [w0++], [w8++]
     df0:	88 00 b1    	sub.w     #0x8, w8
     df2:	80 00 b1    	sub.w     #0x8, w0
     df4:	16 05 07    	rcall     0x1822 <_powerUpReader>
     df6:	20 c0 b3    	mov.b     #0x2, w0
     df8:	f1 fd 07    	rcall     0x9dc <_checkAndSetSession>
     dfa:	10 c0 b3    	mov.b     #0x1, w0
     dfc:	97 0f 07    	rcall     0x2d2c <_as3993AntennaPower>
     dfe:	00 e8 23    	mov.w     #0x3e80, w0
     e00:	01 00 20    	mov.w     #0x0, w1
     e02:	99 1d 07    	rcall     0x4936 <___delay32>
     e04:	60 43 80    	mov.w     0x86c, w0
     e06:	10 49 90    	mov.b     [w0+9], w2
     e08:	80 48 90    	mov.b     [w0+8], w1
     e0a:	8e 01 78    	mov.w     w14, w3
     e0c:	08 00 78    	mov.w     w8, w0
     e0e:	f9 12 07    	rcall     0x3402 <_iso6bWrite>
     e10:	00 44 78    	mov.b     w0, w8
     e12:	80 40 eb    	clr.b     w1
     e14:	01 40 78    	mov.b     w1, w0
     e16:	6e 0d 07    	rcall     0x28f4 <_as3993SingleWrite>
     e18:	ef 04 07    	rcall     0x17f8 <_powerDownReader>
     e1a:	08 00 78    	mov.w     w8, w0
     e1c:	74 e8 b7    	mov.b     WREG, 0x874
     e1e:	10 00 20    	mov.w     #0x1, w0
     e20:	90 43 88    	mov.w     w0, 0x872
     e22:	80 43 80    	mov.w     0x870, w0
     e24:	1e 48 78    	mov.b     [w14], [w0]
     e26:	4f 04 78    	mov.w     [--w15], w8
     e28:	00 80 fa    	ulnk      
     e2a:	00 00 06    	return    

00000e2c <_callInventoryGen2Internal>:
     e2c:	00 00 fa    	lnk       #0x0
     e2e:	5f 48 e2    	cp0.b     0x85f
     e30:	03 00 3a    	bra       NZ, 0xe38 <.L130>
     e32:	1b 00 07    	rcall     0xe6a <_inventoryGen2>
     e34:	10 c0 b3    	mov.b     #0x1, w0
     e36:	5f e8 b7    	mov.b     WREG, 0x85f

00000e38 <.L130>:
     e38:	00 80 fa    	ulnk      
     e3a:	00 00 06    	return    

00000e3c <_callInventoryGen2>:
     e3c:	00 00 fa    	lnk       #0x0
     e3e:	62 43 80    	mov.w     0x86c, w2
     e40:	02 00 78    	mov.w     w2, w0
     e42:	80 1f 78    	mov.w     w0, [w15++]
     e44:	10 40 78    	mov.b     [w0], w0
     e46:	66 e8 b7    	mov.b     WREG, 0x866
     e48:	4f 00 78    	mov.w     [--w15], w0
     e4a:	00 00 e8    	inc.w     w0, w0
     e4c:	90 41 78    	mov.b     [w0], w3
     e4e:	e1 c0 61    	and.b     w3, #0x1, w1
     e50:	80 00 fd    	exch      w0, w1
     e52:	67 e8 b7    	mov.b     WREG, 0x867
     e54:	80 00 fd    	exch      w0, w1
     e56:	10 80 fb    	ze        [w0], w0
     e58:	62 00 60    	and.w     w0, #0x2, w0
     e5a:	00 80 d1    	asr.w     w0, w0
     e5c:	68 e8 b7    	mov.b     WREG, 0x868
     e5e:	22 40 90    	mov.b     [w2+2], w0
     e60:	69 e8 b7    	mov.b     WREG, 0x869
     e62:	e4 ff 07    	rcall     0xe2c <_callInventoryGen2Internal>
     e64:	74 68 ef    	clr.b     0x874
     e66:	00 80 fa    	ulnk      
     e68:	00 00 06    	return    

00000e6a <_inventoryGen2>:
     e6a:	00 00 fa    	lnk       #0x0
     e6c:	88 1f 78    	mov.w     w8, [w15++]
     e6e:	5e 68 ef    	clr.b     0x85e
     e70:	71 04 07    	rcall     0x1754 <_hopFrequencies>
     e72:	00 44 78    	mov.b     w0, w8
     e74:	00 04 e0    	cp0.b     w0
     e76:	36 00 3a    	bra       NZ, 0xee4 <.L134>
     e78:	10 c0 b3    	mov.b     #0x1, w0
     e7a:	b0 fd 07    	rcall     0x9dc <_checkAndSetSession>
     e7c:	91 86 20    	mov.w     #0x869, w1
     e7e:	91 40 78    	mov.b     [w1], w1
     e80:	90 c2 b3    	mov.b     #0x29, w0
     e82:	38 0d 07    	rcall     0x28f4 <_as3993SingleWrite>
     e84:	90 86 20    	mov.w     #0x869, w0
     e86:	81 c0 b3    	mov.b     #0x8, w1
     e88:	90 cf 10    	subr.b    w1, [w0], [w15]
     e8a:	02 00 3a    	bra       NZ, 0xe90 <.L136>
     e8c:	a0 ca b3    	mov.b     #0xaa, w0
     e8e:	ca 0c 07    	rcall     0x2824 <_as3993SingleCommand>

00000e90 <.L136>:
     e90:	ca fd 07    	rcall     0xa26 <_performSelects>
     e92:	e0 a5 21    	mov.w     #0x1a5e, w0
     e94:	68 48 e2    	cp0.b     0x868
     e96:	01 00 3a    	bra       NZ, 0xe9a <.L140>
     e98:	00 00 eb    	clr.w     w0

00000e9a <.L140>:
     e9a:	66 48 e2    	cp0.b     0x866
     e9c:	0f 00 3a    	bra       NZ, 0xebc <.L141>
     e9e:	74 86 20    	mov.w     #0x867, w4
     ea0:	14 42 78    	mov.b     [w4], w4
     ea2:	04 82 fb    	ze        w4, w4
     ea4:	04 02 e9    	dec.w     w4, w4
     ea6:	d2 dd 21    	mov.w     #0x1ddd, w2
     ea8:	12 41 78    	mov.b     [w2], w2
     eaa:	00 03 78    	mov.w     w0, w6
     eac:	15 00 20    	mov.w     #0x1, w5
     eae:	4f 22 de    	lsr.w     w4, #0xf, w4
     eb0:	e3 9b 20    	mov.w     #0x9be, w3
     eb2:	d1 c2 b3    	mov.b     #0x2d, w1
     eb4:	a0 87 20    	mov.w     #0x87a, w0
     eb6:	e9 09 07    	rcall     0x228a <_gen2SearchForTags>
     eb8:	5e e8 b7    	mov.b     WREG, 0x85e
     eba:	0e 00 37    	bra       0xed8 <.L144>

00000ebc <.L141>:
     ebc:	74 86 20    	mov.w     #0x867, w4
     ebe:	14 42 78    	mov.b     [w4], w4
     ec0:	04 82 fb    	ze        w4, w4
     ec2:	04 02 e9    	dec.w     w4, w4
     ec4:	d2 dd 21    	mov.w     #0x1ddd, w2
     ec6:	12 41 78    	mov.b     [w2], w2
     ec8:	00 03 78    	mov.w     w0, w6
     eca:	15 00 20    	mov.w     #0x1, w5
     ecc:	4f 22 de    	lsr.w     w4, #0xf, w4
     ece:	e3 9b 20    	mov.w     #0x9be, w3
     ed0:	d1 c2 b3    	mov.b     #0x2d, w1
     ed2:	a0 87 20    	mov.w     #0x87a, w0
     ed4:	53 0a 07    	rcall     0x237c <_gen2SearchForTagsAutoAck>
     ed6:	5e e8 b7    	mov.b     WREG, 0x85e

00000ed8 <.L144>:
     ed8:	90 86 20    	mov.w     #0x869, w0
     eda:	81 c0 b3    	mov.b     #0x8, w1
     edc:	90 cf 10    	subr.b    w1, [w0], [w15]
     ede:	02 00 3a    	bra       NZ, 0xee4 <.L134>
     ee0:	b0 ca b3    	mov.b     #0xab, w0
     ee2:	a0 0c 07    	rcall     0x2824 <_as3993SingleCommand>

00000ee4 <.L134>:
     ee4:	00 04 fd    	exch      w0, w8
     ee6:	6b e8 b7    	mov.b     WREG, 0x86b
     ee8:	00 04 fd    	exch      w0, w8
     eea:	71 04 07    	rcall     0x17ce <_hopChannelRelease>
     eec:	5e c8 bf    	mov.b     0x85e, WREG
     eee:	00 80 fb    	ze        w0, w0
     ef0:	4f 04 78    	mov.w     [--w15], w8
     ef2:	00 80 fa    	ulnk      
     ef4:	00 00 06    	return    

00000ef6 <_callSelectTag>:
     ef6:	00 00 fa    	lnk       #0x0
     ef8:	02 00 07    	rcall     0xefe <_selectTag>
     efa:	00 80 fa    	ulnk      
     efc:	00 00 06    	return    

00000efe <_selectTag>:
     efe:	00 00 fa    	lnk       #0x0
     f00:	88 9f be    	mov.d     w8, [w15++]
     f02:	68 43 80    	mov.w     0x86c, w8
     f04:	18 40 78    	mov.b     [w8], w0
     f06:	00 04 e0    	cp0.b     w0
     f08:	04 00 3a    	bra       NZ, 0xf12 <.L151>
     f0a:	00 00 eb    	clr.w     w0
     f0c:	40 40 88    	mov.w     w0, 0x808
     f0e:	80 40 78    	mov.b     w0, w1
     f10:	3f 00 37    	bra       0xf90 <.L153>

00000f12 <.L151>:
     f12:	e1 4f 50    	sub.b     w0, #0x1, [w15]
     f14:	05 00 3a    	bra       NZ, 0xf20 <.L154>
     f16:	80 c0 eb    	setm.b    w1
     f18:	40 40 80    	mov.w     0x808, w0
     f1a:	e2 0f 50    	sub.w     w0, #0x2, [w15]
     f1c:	39 00 32    	bra       Z, 0xf90 <.L153>
     f1e:	03 00 37    	bra       0xf26 <.L156>

00000f20 <.L154>:
     f20:	e2 4f 50    	sub.b     w0, #0x2, [w15]
     f22:	01 00 3a    	bra       NZ, 0xf26 <.L156>
     f24:	08 28 ef    	clr.w     0x808

00000f26 <.L156>:
     f26:	79 43 80    	mov.w     0x86e, w9
     f28:	e8 8f 54    	sub.w     w9, #0x8, [w15]
     f2a:	31 00 36    	bra       LEU, 0xf8e <.L159>
     f2c:	42 40 80    	mov.w     0x808, w2
     f2e:	02 00 e8    	inc.w     w2, w0
     f30:	40 40 88    	mov.w     w0, 0x808
     f32:	02 81 fb    	ze        w2, w2
     f34:	a0 02 20    	mov.w     #0x2a, w0
     f36:	00 91 b9    	mul.ss    w2, w0, w2
     f38:	a7 80 20    	mov.w     #0x80a, w7
     f3a:	07 00 41    	add.w     w2, w7, w0
     f3c:	98 40 90    	mov.b     [w8+1], w1
     f3e:	01 48 78    	mov.b     w1, [w0]
     f40:	a8 40 90    	mov.b     [w8+2], w1
     f42:	11 40 98    	mov.b     w1, [w0+1]
     f44:	02 80 e8    	inc2.w    w2, w0
     f46:	87 01 40    	add.w     w0, w7, w3
     f48:	38 40 90    	mov.b     [w8+3], w0
     f4a:	80 49 78    	mov.b     w0, [w3]
     f4c:	48 42 90    	mov.b     [w8+4], w4
     f4e:	04 82 fb    	ze        w4, w4
     f50:	05 00 20    	mov.w     #0x0, w5
     f52:	46 02 20    	mov.w     #0x24, w6
     f54:	02 03 43    	add.w     w6, w2, w6
     f56:	07 03 43    	add.w     w6, w7, w6
     f58:	04 8b be    	mov.d     w4, [w6]
     f5a:	58 40 90    	mov.b     [w8+5], w0
     f5c:	48 00 dd    	sl.w      w0, #0x8, w0
     f5e:	cf 80 de    	asr.w     w0, #0xf, w1
     f60:	00 1b 72    	ior.w     w4, w0, [w6++]
     f62:	01 93 72    	ior.w     w5, w1, [w6--]
     f64:	82 02 b0    	add.w     #0x28, w2
     f66:	07 01 41    	add.w     w2, w7, w2
     f68:	e8 40 90    	mov.b     [w8+6], w1
     f6a:	01 49 78    	mov.b     w1, [w2]
     f6c:	78 40 90    	mov.b     [w8+7], w0
     f6e:	10 41 98    	mov.b     w0, [w2+1]
     f70:	01 80 fb    	ze        w1, w0
     f72:	67 00 40    	add.w     w0, #0x7, w0
     f74:	82 00 20    	mov.w     #0x8, w2
     f76:	11 00 09    	repeat    #0x11
     f78:	02 00 d8    	div.sw    w0, w2
     f7a:	00 01 78    	mov.w     w0, w2
     f7c:	69 80 54    	sub.w     w9, #0x9, w0
     f7e:	82 0f 50    	sub.w     w0, w2, [w15]
     f80:	06 00 39    	bra       NC, 0xf8e <.L159>
     f82:	03 00 e8    	inc.w     w3, w0
     f84:	e8 00 44    	add.w     w8, #0x8, w1
     f86:	8c fb 07    	rcall     0x6a0 <_memcpy>
     f88:	c7 fe 07    	rcall     0xd18 <_initTagInfo>
     f8a:	80 40 eb    	clr.b     w1
     f8c:	01 00 37    	bra       0xf90 <.L153>

00000f8e <.L159>:
     f8e:	91 cf b3    	mov.b     #0xf9, w1

00000f90 <.L153>:
     f90:	72 28 ef    	clr.w     0x872
     f92:	01 00 78    	mov.w     w1, w0
     f94:	74 e8 b7    	mov.b     WREG, 0x874
     f96:	4f 04 be    	mov.d     [--w15], w8
     f98:	00 80 fa    	ulnk      
     f9a:	00 00 06    	return    

00000f9c <_callWriteToTag>:
     f9c:	00 00 fa    	lnk       #0x0
     f9e:	41 04 07    	rcall     0x1822 <_powerUpReader>
     fa0:	10 c0 b3    	mov.b     #0x1, w0
     fa2:	1c fd 07    	rcall     0x9dc <_checkAndSetSession>
     fa4:	4a 00 07    	rcall     0x103a <_writeToTag>
     fa6:	00 80 fa    	ulnk      
     fa8:	00 00 06    	return    

00000faa <_writeTagMem>:
     faa:	10 00 fa    	lnk       #0x10
     fac:	88 9f be    	mov.d     w8, [w15++]
     fae:	8a 9f be    	mov.d     w10, [w15++]
     fb0:	8c 9f be    	mov.d     w12, [w15++]
     fb2:	20 07 98    	mov.w     w0, [w14+4]
     fb4:	31 07 98    	mov.w     w1, [w14+6]
     fb6:	42 07 98    	mov.w     w2, [w14+8]
     fb8:	24 4f 98    	mov.b     w4, [w14+10]
     fba:	35 4f 98    	mov.b     w5, [w14+11]
     fbc:	66 07 98    	mov.w     w6, [w14+12]
     fbe:	77 07 98    	mov.w     w7, [w14+14]
     fc0:	04 04 e0    	cp0.b     w4
     fc2:	02 00 3a    	bra       NZ, 0xfc8 <.L166>
     fc4:	04 4f 78    	mov.b     w4, [w14]
     fc6:	30 00 37    	bra       0x1028 <.L168>

00000fc8 <.L166>:
     fc8:	83 06 78    	mov.w     w3, w13
     fca:	2e 05 90    	mov.w     [w14+4], w10
     fcc:	be 05 90    	mov.w     [w14+6], w11
     fce:	80 40 eb    	clr.b     w1
     fd0:	01 4f 78    	mov.b     w1, [w14]

00000fd2 <.L169>:
     fd2:	2e 00 90    	mov.w     [w14+4], w0
     fd4:	00 00 55    	sub.w     w10, w0, w0
     fd6:	10 07 98    	mov.w     w0, [w14+2]
     fd8:	0d 06 78    	mov.w     w13, w12
     fda:	80 44 eb    	clr.b     w9

00000fdc <.L170>:
     fdc:	fe 02 90    	mov.w     [w14+14], w5
     fde:	0c 02 78    	mov.w     w12, w4
     fe0:	0a 01 be    	mov.d     w10, w2
     fe2:	be 48 90    	mov.b     [w14+11], w1
     fe4:	4e 00 90    	mov.w     [w14+8], w0
     fe6:	ac 08 07    	rcall     0x2140 <_gen2WriteWordToTag>
     fe8:	00 44 78    	mov.b     w0, w8
     fea:	89 44 e8    	inc.b     w9, w9
     fec:	00 04 e0    	cp0.b     w0
     fee:	03 00 32    	bra       Z, 0xff6 <.L171>
     ff0:	00 20 2e    	mov.w     #0xe200, w0
     ff2:	41 00 20    	mov.w     #0x4, w1
     ff4:	a0 1c 07    	rcall     0x4936 <___delay32>

00000ff6 <.L171>:
     ff6:	e7 cf 54    	sub.b     w9, #0x7, [w15]
     ff8:	05 00 32    	bra       Z, 0x1004 <.L173>
     ffa:	08 04 e0    	cp0.b     w8
     ffc:	03 00 32    	bra       Z, 0x1004 <.L173>
     ffe:	df fc 07    	rcall     0x9be <_continueCheckTimeout>
    1000:	00 00 e0    	cp0.w     w0
    1002:	ec ff 3a    	bra       NZ, 0xfdc <.L170>

00001004 <.L173>:
    1004:	64 48 e2    	cp0.b     0x864
    1006:	02 00 32    	bra       Z, 0x100c <.L176>
    1008:	c8 cb b3    	mov.b     #0xbc, w8
    100a:	02 00 37    	bra       0x1010 <.L178>

0000100c <.L176>:
    100c:	08 04 e0    	cp0.b     w8
    100e:	03 00 32    	bra       Z, 0x1016 <.L179>

00001010 <.L178>:
    1010:	ee 00 90    	mov.w     [w14+12], w1
    1012:	88 48 78    	mov.b     w8, [w1]
    1014:	0c 00 37    	bra       0x102e <.L180>

00001016 <.L179>:
    1016:	1e 40 78    	mov.b     [w14], w0
    1018:	00 40 e8    	inc.b     w0, w0
    101a:	00 4f 78    	mov.b     w0, [w14]
    101c:	61 05 45    	add.w     w10, #0x1, w10
    101e:	e0 85 4d    	addc.w    w11, #0x0, w11
    1020:	8d 86 e8    	inc2.w    w13, w13
    1022:	ae 48 90    	mov.b     [w14+10], w1
    1024:	80 cf 50    	sub.b     w1, w0, [w15]
    1026:	d5 ff 3a    	bra       NZ, 0xfd2 <.L169>

00001028 <.L168>:
    1028:	1e 40 78    	mov.b     [w14], w0
    102a:	00 80 fb    	ze        w0, w0
    102c:	10 07 98    	mov.w     w0, [w14+2]

0000102e <.L180>:
    102e:	1e 00 90    	mov.w     [w14+2], w0
    1030:	4f 06 be    	mov.d     [--w15], w12
    1032:	4f 05 be    	mov.d     [--w15], w10
    1034:	4f 04 be    	mov.d     [--w15], w8
    1036:	00 80 fa    	ulnk      
    1038:	00 00 06    	return    

0000103a <_writeToTag>:
    103a:	02 00 fa    	lnk       #0x2
    103c:	88 9f be    	mov.d     w8, [w15++]
    103e:	8a 9f be    	mov.d     w10, [w15++]
    1040:	8c 1f 78    	mov.w     w12, [w15++]
    1042:	00 4f eb    	clr.b     [w14]
    1044:	60 43 80    	mov.w     0x86c, w0
    1046:	30 46 78    	mov.b     [w0++], w12
    1048:	1b 18 07    	rcall     0x4080 <_readU32FromLittleEndianBuffer>
    104a:	00 05 be    	mov.d     w0, w10
    104c:	70 43 80    	mov.w     0x86e, w0
    104e:	69 00 50    	sub.w     w0, #0x9, w0
    1050:	80 04 d1    	lsr.w     w0, w9
    1052:	80 03 07    	rcall     0x1754 <_hopFrequencies>
    1054:	00 44 78    	mov.b     w0, w8
    1056:	00 4f 78    	mov.b     w0, [w14]
    1058:	00 04 e0    	cp0.b     w0
    105a:	24 00 3a    	bra       NZ, 0x10a4 <.L185>
    105c:	f4 fc 07    	rcall     0xa46 <_powerAndSelectTag>
    105e:	5e 48 e2    	cp0.b     0x85e
    1060:	03 00 3a    	bra       NZ, 0x1068 <.L187>
    1062:	f0 cb b3    	mov.b     #0xbf, w0
    1064:	00 4f 78    	mov.b     w0, [w14]
    1066:	1f 00 37    	bra       0x10a6 <.L189>

00001068 <.L187>:
    1068:	62 43 80    	mov.w     0x86c, w2
    106a:	e5 00 41    	add.w     w2, #0x5, w1
    106c:	11 04 e0    	cp0.b     [w1]
    106e:	09 00 3a    	bra       NZ, 0x1082 <.L190>
    1070:	62 40 90    	mov.b     [w2+6], w0
    1072:	00 04 e0    	cp0.b     w0
    1074:	06 00 3a    	bra       NZ, 0x1082 <.L190>
    1076:	72 40 90    	mov.b     [w2+7], w0
    1078:	00 04 e0    	cp0.b     w0
    107a:	03 00 3a    	bra       NZ, 0x1082 <.L190>
    107c:	02 48 90    	mov.b     [w2+8], w0
    107e:	00 04 e0    	cp0.b     w0
    1080:	05 00 32    	bra       Z, 0x108c <.L194>

00001082 <.L190>:
    1082:	c0 8f 80    	mov.w     0x11f8, w0
    1084:	a0 07 07    	rcall     0x1fc6 <_gen2AccessTag>
    1086:	00 4f 78    	mov.b     w0, [w14]
    1088:	00 04 e0    	cp0.b     w0
    108a:	0c 00 3a    	bra       NZ, 0x10a4 <.L185>

0000108c <.L194>:
    108c:	87 43 80    	mov.w     0x870, w7
    108e:	87 03 e8    	inc.w     w7, w7
    1090:	c2 8f 80    	mov.w     0x11f8, w2
    1092:	0e 03 78    	mov.w     w14, w6
    1094:	8c 42 78    	mov.b     w12, w5
    1096:	09 42 78    	mov.b     w9, w4
    1098:	63 43 80    	mov.w     0x86c, w3
    109a:	e9 81 41    	add.w     w3, #0x9, w3
    109c:	0a 00 be    	mov.d     w10, w0
    109e:	85 ff 07    	rcall     0xfaa <_writeTagMem>
    10a0:	00 44 78    	mov.b     w0, w8
    10a2:	01 00 37    	bra       0x10a6 <.L189>

000010a4 <.L185>:
    10a4:	00 44 eb    	clr.b     w8

000010a6 <.L189>:
    10a6:	93 03 07    	rcall     0x17ce <_hopChannelRelease>
    10a8:	20 00 20    	mov.w     #0x2, w0
    10aa:	90 43 88    	mov.w     w0, 0x872
    10ac:	80 43 80    	mov.w     0x870, w0
    10ae:	08 48 78    	mov.b     w8, [w0]
    10b0:	1e 40 78    	mov.b     [w14], w0
    10b2:	74 e8 b7    	mov.b     WREG, 0x874
    10b4:	4f 06 78    	mov.w     [--w15], w12
    10b6:	4f 05 be    	mov.d     [--w15], w10
    10b8:	4f 04 be    	mov.d     [--w15], w8
    10ba:	00 80 fa    	ulnk      
    10bc:	00 00 06    	return    

000010be <_pseudoRandomContinuousModulation>:
    10be:	04 00 fa    	lnk       #0x4
    10c0:	80 01 eb    	clr.w     w3
    10c2:	13 07 98    	mov.w     w3, [w14+2]
    10c4:	62 80 20    	mov.w     #0x806, w2
    10c6:	12 41 78    	mov.b     [w2], w2
    10c8:	02 80 fb    	ze        w2, w0
    10ca:	00 00 40    	add.w     w0, w0, w0
    10cc:	61 43 80    	mov.w     0x86c, w1
    10ce:	01 00 40    	add.w     w0, w1, w0
    10d0:	f0 40 90    	mov.b     [w0+7], w1
    10d2:	81 80 fb    	ze        w1, w1
    10d4:	00 48 90    	mov.b     [w0+8], w0
    10d6:	48 00 dd    	sl.w      w0, #0x8, w0
    10d8:	80 80 70    	ior.w     w1, w0, w1
    10da:	20 40 80    	mov.w     0x804, w0
    10dc:	80 80 68    	xor.w     w1, w0, w1
    10de:	50 08 80    	mov.w     0x10a, w0
    10e0:	00 80 68    	xor.w     w1, w0, w0
    10e2:	20 40 88    	mov.w     w0, 0x804
    10e4:	02 41 e8    	inc.b     w2, w2
    10e6:	00 01 fd    	exch      w0, w2
    10e8:	06 e8 b7    	mov.b     WREG, 0x806
    10ea:	00 01 fd    	exch      w0, w2
    10ec:	e5 4f 51    	sub.b     w2, #0x5, [w15]
    10ee:	03 00 36    	bra       LEU, 0x10f6 <.L197>
    10f0:	80 01 fd    	exch      w0, w3
    10f2:	06 e8 b7    	mov.b     WREG, 0x806
    10f4:	80 01 fd    	exch      w0, w3

000010f6 <.L197>:
    10f6:	00 4f 78    	mov.b     w0, [w14]
    10f8:	48 00 de    	lsr.w     w0, #0x8, w0
    10fa:	10 47 98    	mov.b     w0, [w14+1]
    10fc:	17 c0 b3    	mov.b     #0x1, w7
    10fe:	00 43 eb    	clr.b     w6
    1100:	86 42 78    	mov.b     w6, w5
    1102:	0e 82 e8    	inc2.w    w14, w4
    1104:	80 01 eb    	clr.w     w3
    1106:	02 01 20    	mov.w     #0x10, w2
    1108:	8e 00 78    	mov.w     w14, w1
    110a:	00 c9 b3    	mov.b     #0x90, w0
    110c:	30 0f 07    	rcall     0x2f6e <_as3993TxRxGen2Bytes>
    110e:	00 80 fa    	ulnk      
    1110:	00 00 06    	return    

00001112 <_callChangeFreq>:
    1112:	02 00 fa    	lnk       #0x2
    1114:	88 9f be    	mov.d     w8, [w15++]
    1116:	8a 9f be    	mov.d     w10, [w15++]
    1118:	8c 9f be    	mov.d     w12, [w15++]
    111a:	64 43 80    	mov.w     0x86c, w4
    111c:	94 42 90    	mov.b     [w4+1], w5
    111e:	05 80 fb    	ze        w5, w0
    1120:	01 00 20    	mov.w     #0x0, w1
    1122:	24 41 90    	mov.b     [w4+2], w2
    1124:	48 11 dd    	sl.w      w2, #0x8, w2
    1126:	03 00 20    	mov.w     #0x0, w3
    1128:	00 00 41    	add.w     w2, w0, w0
    112a:	81 80 49    	addc.w    w3, w1, w1
    112c:	34 41 90    	mov.b     [w4+3], w2
    112e:	82 81 fb    	ze        w2, w3
    1130:	02 00 20    	mov.w     #0x0, w2
    1132:	00 05 41    	add.w     w2, w0, w10
    1134:	81 85 49    	addc.w    w3, w1, w11
    1136:	14 40 78    	mov.b     [w4], w0
    1138:	e5 4f 50    	sub.b     w0, #0x5, [w15]
    113a:	6b 00 32    	bra       Z, 0x1212 <.L204>
    113c:	05 00 3e    	bra       GTU, 0x1148 <.L208>
    113e:	e2 4f 50    	sub.b     w0, #0x2, [w15]
    1140:	0a 00 32    	bra       Z, 0x1156 <.L202>
    1142:	e4 4f 50    	sub.b     w0, #0x4, [w15]
    1144:	25 01 3a    	bra       NZ, 0x1390 <.L201>
    1146:	27 00 37    	bra       0x1196 <.L203>

00001148 <.L208>:
    1148:	e9 4f 50    	sub.b     w0, #0x9, [w15]
    114a:	bd 00 32    	bra       Z, 0x12c6 <.L206>
    114c:	f0 4f 50    	sub.b     w0, #0x10, [w15]
    114e:	da 00 32    	bra       Z, 0x1304 <.L207>
    1150:	e8 4f 50    	sub.b     w0, #0x8, [w15]
    1152:	1e 01 3a    	bra       NZ, 0x1390 <.L201>
    1154:	8d 00 37    	bra       0x1270 <.L205>

00001156 <.L202>:
    1156:	70 43 80    	mov.w     0x86e, w0
    1158:	e4 0f 50    	sub.w     w0, #0x4, [w15]
    115a:	05 00 3e    	bra       GTU, 0x1166 <.L209>
    115c:	90 cf b3    	mov.b     #0xf9, w0
    115e:	74 e8 b7    	mov.b     WREG, 0x874
    1160:	20 00 20    	mov.w     #0x2, w0
    1162:	90 43 88    	mov.w     w0, 0x872
    1164:	1e 01 37    	bra       0x13a2 <.L233>

00001166 <.L209>:
    1166:	5d 03 07    	rcall     0x1822 <_powerUpReader>
    1168:	0a 01 be    	mov.d     w10, w2
    116a:	70 c1 b3    	mov.b     #0x17, w0
    116c:	86 0c 07    	rcall     0x2a7a <_as3993SetBaseFrequency>
    116e:	cc 0e 07    	rcall     0x2f08 <_as3993GetReflectedPowerNoiseLevel>
    1170:	80 04 78    	mov.w     w0, w9
    1172:	10 c0 b3    	mov.b     #0x1, w0
    1174:	db 0d 07    	rcall     0x2d2c <_as3993AntennaPower>
    1176:	94 0e 07    	rcall     0x2ea0 <_as3993GetReflectedPower>
    1178:	00 04 78    	mov.w     w0, w8
    117a:	00 40 eb    	clr.b     w0
    117c:	d7 0d 07    	rcall     0x2d2c <_as3993AntennaPower>
    117e:	20 00 20    	mov.w     #0x2, w0
    1180:	90 43 88    	mov.w     w0, 0x872
    1182:	80 43 80    	mov.w     0x870, w0
    1184:	09 48 54    	sub.b     w8, w9, [w0]
    1186:	c8 40 de    	lsr.w     w8, #0x8, w1
    1188:	48 48 de    	lsr.w     w9, #0x8, w0
    118a:	80 c0 50    	sub.b     w1, w0, w1
    118c:	80 43 80    	mov.w     0x870, w0
    118e:	11 40 98    	mov.b     w1, [w0+1]
    1190:	74 68 ef    	clr.b     0x874
    1192:	32 03 07    	rcall     0x17f8 <_powerDownReader>
    1194:	06 01 37    	bra       0x13a2 <.L233>

00001196 <.L203>:
    1196:	70 43 80    	mov.w     0x86e, w0
    1198:	e5 0f 50    	sub.w     w0, #0x5, [w15]
    119a:	05 00 3e    	bra       GTU, 0x11a6 <.L212>
    119c:	90 cf b3    	mov.b     #0xf9, w0
    119e:	74 e8 b7    	mov.b     WREG, 0x874
    11a0:	10 00 20    	mov.w     #0x1, w0
    11a2:	90 43 88    	mov.w     w0, 0x872
    11a4:	fe 00 37    	bra       0x13a2 <.L233>

000011a6 <.L212>:
    11a6:	44 40 90    	mov.b     [w4+4], w0
    11a8:	00 04 e0    	cp0.b     w0
    11aa:	07 00 32    	bra       Z, 0x11ba <.L214>
    11ac:	00 40 eb    	clr.b     w0
    11ae:	fa f1 b7    	mov.b     WREG, 0x11fa
    11b0:	df fd b7    	mov.b     WREG, 0x1ddf
    11b2:	2a ef 88    	mov.w     w10, 0x1de4
    11b4:	3b ef 88    	mov.w     w11, 0x1de6
    11b6:	0a ef 88    	mov.w     w10, 0x1de0
    11b8:	1b ef 88    	mov.w     w11, 0x1de2

000011ba <.L214>:
    11ba:	fa 51 ec    	inc.b     0x11fa, WREG
    11bc:	fa f1 b7    	mov.b     WREG, 0x11fa
    11be:	df 7d ec    	inc.b     0x1ddf
    11c0:	51 c3 b3    	mov.b     #0x35, w1
    11c2:	81 4f 50    	sub.b     w0, w1, [w15]
    11c4:	08 00 36    	bra       LEU, 0x11d6 <.L216>
    11c6:	01 00 78    	mov.w     w1, w0
    11c8:	fa f1 b7    	mov.b     WREG, 0x11fa
    11ca:	10 00 20    	mov.w     #0x1, w0
    11cc:	90 43 88    	mov.w     w0, 0x872
    11ce:	80 43 80    	mov.w     0x870, w0
    11d0:	00 48 eb    	clr.b     [w0]
    11d2:	74 e8 ef    	setm.b    0x874
    11d4:	e6 00 37    	bra       0x13a2 <.L233>

000011d6 <.L216>:
    11d6:	00 80 fb    	ze        w0, w0
    11d8:	42 00 dd    	sl.w      w0, #0x2, w0
    11da:	81 1f 21    	mov.w     #0x11f8, w1
    11dc:	01 00 40    	add.w     w0, w1, w0
    11de:	0a 88 be    	mov.d     w10, [w0]
    11e0:	60 43 80    	mov.w     0x86c, w0
    11e2:	50 40 90    	mov.b     [w0+5], w0
    11e4:	de fd b7    	mov.b     WREG, 0x1dde
    11e6:	20 ef 80    	mov.w     0x1de4, w0
    11e8:	31 ef 80    	mov.w     0x1de6, w1
    11ea:	80 0f 55    	sub.w     w10, w0, [w15]
    11ec:	81 8f 5d    	subb.w    w11, w1, [w15]
    11ee:	02 00 36    	bra       LEU, 0x11f4 <.L218>
    11f0:	2a ef 88    	mov.w     w10, 0x1de4
    11f2:	3b ef 88    	mov.w     w11, 0x1de6

000011f4 <.L218>:
    11f4:	00 ef 80    	mov.w     0x1de0, w0
    11f6:	11 ef 80    	mov.w     0x1de2, w1
    11f8:	80 0f 55    	sub.w     w10, w0, [w15]
    11fa:	81 8f 5d    	subb.w    w11, w1, [w15]
    11fc:	02 00 31    	bra       C, 0x1202 <.L220>
    11fe:	0a ef 88    	mov.w     w10, 0x1de0
    1200:	1b ef 88    	mov.w     w11, 0x1de2

00001202 <.L220>:
    1202:	10 00 20    	mov.w     #0x1, w0
    1204:	90 43 88    	mov.w     w0, 0x872
    1206:	80 40 eb    	clr.b     w1
    1208:	80 43 80    	mov.w     0x870, w0
    120a:	01 48 78    	mov.b     w1, [w0]
    120c:	01 00 78    	mov.w     w1, w0
    120e:	74 e8 b7    	mov.b     WREG, 0x874
    1210:	c8 00 37    	bra       0x13a2 <.L233>

00001212 <.L204>:
    1212:	80 43 80    	mov.w     0x870, w0
    1214:	e1 dd 21    	mov.w     #0x1dde, w1
    1216:	11 48 78    	mov.b     [w1], [w0]
    1218:	80 43 80    	mov.w     0x870, w0
    121a:	01 de 21    	mov.w     #0x1de0, w1
    121c:	91 40 78    	mov.b     [w1], w1
    121e:	11 40 98    	mov.b     w1, [w0+1]
    1220:	00 ef 80    	mov.w     0x1de0, w0
    1222:	11 ef 80    	mov.w     0x1de2, w1
    1224:	48 09 dd    	sl.w      w1, #0x8, w2
    1226:	48 00 de    	lsr.w     w0, #0x8, w0
    1228:	00 00 71    	ior.w     w2, w0, w0
    122a:	c8 08 de    	lsr.w     w1, #0x8, w1
    122c:	82 43 80    	mov.w     0x870, w2
    122e:	20 41 98    	mov.b     w0, [w2+2]
    1230:	80 43 80    	mov.w     0x870, w0
    1232:	21 de 21    	mov.w     #0x1de2, w1
    1234:	91 40 78    	mov.b     [w1], w1
    1236:	31 40 98    	mov.b     w1, [w0+3]
    1238:	80 43 80    	mov.w     0x870, w0
    123a:	42 de 21    	mov.w     #0x1de4, w2
    123c:	12 41 78    	mov.b     [w2], w2
    123e:	42 40 98    	mov.b     w2, [w0+4]
    1240:	20 ef 80    	mov.w     0x1de4, w0
    1242:	31 ef 80    	mov.w     0x1de6, w1
    1244:	48 09 dd    	sl.w      w1, #0x8, w2
    1246:	48 00 de    	lsr.w     w0, #0x8, w0
    1248:	00 00 71    	ior.w     w2, w0, w0
    124a:	c8 08 de    	lsr.w     w1, #0x8, w1
    124c:	82 43 80    	mov.w     0x870, w2
    124e:	50 41 98    	mov.b     w0, [w2+5]
    1250:	80 43 80    	mov.w     0x870, w0
    1252:	61 de 21    	mov.w     #0x1de6, w1
    1254:	91 40 78    	mov.b     [w1], w1
    1256:	61 40 98    	mov.b     w1, [w0+6]
    1258:	80 43 80    	mov.w     0x870, w0
    125a:	a2 1f 21    	mov.w     #0x11fa, w2
    125c:	12 41 78    	mov.b     [w2], w2
    125e:	72 40 98    	mov.b     w2, [w0+7]
    1260:	80 43 80    	mov.w     0x870, w0
    1262:	f1 dd 21    	mov.w     #0x1ddf, w1
    1264:	91 40 78    	mov.b     [w1], w1
    1266:	01 48 98    	mov.b     w1, [w0+8]
    1268:	90 00 20    	mov.w     #0x9, w0
    126a:	90 43 88    	mov.w     w0, 0x872
    126c:	74 68 ef    	clr.b     0x874
    126e:	99 00 37    	bra       0x13a2 <.L233>

00001270 <.L205>:
    1270:	70 43 80    	mov.w     0x86e, w0
    1272:	e7 0f 50    	sub.w     w0, #0x7, [w15]
    1274:	05 00 3e    	bra       GTU, 0x1280 <.L222>
    1276:	90 cf b3    	mov.b     #0xf9, w0
    1278:	74 e8 b7    	mov.b     WREG, 0x874
    127a:	10 00 20    	mov.w     #0x1, w0
    127c:	90 43 88    	mov.w     w0, 0x872
    127e:	91 00 37    	bra       0x13a2 <.L233>

00001280 <.L222>:
    1280:	85 80 fb    	ze        w5, w1
    1282:	51 ef 88    	mov.w     w1, 0x1dea
    1284:	62 43 80    	mov.w     0x86c, w2
    1286:	22 40 90    	mov.b     [w2+2], w0
    1288:	48 00 dd    	sl.w      w0, #0x8, w0
    128a:	80 80 70    	ior.w     w1, w0, w1
    128c:	51 ef 88    	mov.w     w1, 0x1dea
    128e:	b2 40 90    	mov.b     [w2+3], w1
    1290:	81 80 fb    	ze        w1, w1
    1292:	41 ef 88    	mov.w     w1, 0x1de8
    1294:	42 40 90    	mov.b     [w2+4], w0
    1296:	48 00 dd    	sl.w      w0, #0x8, w0
    1298:	80 80 70    	ior.w     w1, w0, w1
    129a:	41 ef 88    	mov.w     w1, 0x1de8
    129c:	d2 40 90    	mov.b     [w2+5], w1
    129e:	81 80 fb    	ze        w1, w1
    12a0:	01 40 88    	mov.w     w1, 0x800
    12a2:	62 40 90    	mov.b     [w2+6], w0
    12a4:	48 00 dd    	sl.w      w0, #0x8, w0
    12a6:	80 80 70    	ior.w     w1, w0, w1
    12a8:	01 40 88    	mov.w     w1, 0x800
    12aa:	72 40 90    	mov.b     [w2+7], w0
    12ac:	60 e8 b7    	mov.b     WREG, 0x860
    12ae:	10 00 20    	mov.w     #0x1, w0
    12b0:	90 43 88    	mov.w     w0, 0x872
    12b2:	80 43 80    	mov.w     0x870, w0
    12b4:	00 48 eb    	clr.b     [w0]
    12b6:	41 ef 80    	mov.w     0x1de8, w1
    12b8:	10 03 20    	mov.w     #0x31, w0
    12ba:	80 8f 50    	sub.w     w1, w0, [w15]
    12bc:	02 00 3e    	bra       GTU, 0x12c2 <.L224>
    12be:	00 00 e8    	inc.w     w0, w0
    12c0:	40 ef 88    	mov.w     w0, 0x1de8

000012c2 <.L224>:
    12c2:	74 68 ef    	clr.b     0x874
    12c4:	6e 00 37    	bra       0x13a2 <.L233>

000012c6 <.L206>:
    12c6:	70 00 20    	mov.w     #0x7, w0
    12c8:	90 43 88    	mov.w     w0, 0x872
    12ca:	80 43 80    	mov.w     0x870, w0
    12cc:	a1 de 21    	mov.w     #0x1dea, w1
    12ce:	11 48 78    	mov.b     [w1], [w0]
    12d0:	80 43 80    	mov.w     0x870, w0
    12d2:	b1 de 21    	mov.w     #0x1deb, w1
    12d4:	91 40 78    	mov.b     [w1], w1
    12d6:	11 40 98    	mov.b     w1, [w0+1]
    12d8:	80 43 80    	mov.w     0x870, w0
    12da:	82 de 21    	mov.w     #0x1de8, w2
    12dc:	12 41 78    	mov.b     [w2], w2
    12de:	22 40 98    	mov.b     w2, [w0+2]
    12e0:	80 43 80    	mov.w     0x870, w0
    12e2:	91 de 21    	mov.w     #0x1de9, w1
    12e4:	91 40 78    	mov.b     [w1], w1
    12e6:	31 40 98    	mov.b     w1, [w0+3]
    12e8:	80 43 80    	mov.w     0x870, w0
    12ea:	02 80 20    	mov.w     #0x800, w2
    12ec:	12 41 78    	mov.b     [w2], w2
    12ee:	42 40 98    	mov.b     w2, [w0+4]
    12f0:	80 43 80    	mov.w     0x870, w0
    12f2:	11 80 20    	mov.w     #0x801, w1
    12f4:	91 40 78    	mov.b     [w1], w1
    12f6:	51 40 98    	mov.b     w1, [w0+5]
    12f8:	80 43 80    	mov.w     0x870, w0
    12fa:	02 86 20    	mov.w     #0x860, w2
    12fc:	12 41 78    	mov.b     [w2], w2
    12fe:	62 40 98    	mov.b     w2, [w0+6]
    1300:	74 68 ef    	clr.b     0x874
    1302:	4f 00 37    	bra       0x13a2 <.L233>

00001304 <.L207>:
    1304:	70 43 80    	mov.w     0x86e, w0
    1306:	f1 0f 50    	sub.w     w0, #0x11, [w15]
    1308:	04 00 3e    	bra       GTU, 0x1312 <.L226>
    130a:	90 cf b3    	mov.b     #0xf9, w0
    130c:	74 e8 b7    	mov.b     WREG, 0x874
    130e:	72 28 ef    	clr.w     0x872
    1310:	48 00 37    	bra       0x13a2 <.L233>

00001312 <.L226>:
    1312:	44 44 90    	mov.b     [w4+4], w8
    1314:	08 84 fb    	ze        w8, w8
    1316:	54 40 90    	mov.b     [w4+5], w0
    1318:	48 00 dd    	sl.w      w0, #0x8, w0
    131a:	00 04 74    	ior.w     w8, w0, w8
    131c:	80 04 eb    	clr.w     w9
    131e:	09 0f 78    	mov.w     w9, [w14]
    1320:	80 02 07    	rcall     0x1822 <_powerUpReader>
    1322:	70 c0 b3    	mov.b     #0x7, w0
    1324:	b1 0a 07    	rcall     0x2888 <_as3993SingleRead>
    1326:	80 46 78    	mov.b     w0, w13
    1328:	80 c0 b3    	mov.b     #0x8, w0
    132a:	ae 0a 07    	rcall     0x2888 <_as3993SingleRead>
    132c:	00 46 78    	mov.b     w0, w12
    132e:	89 40 78    	mov.b     w9, w1
    1330:	70 c0 b3    	mov.b     #0x7, w0
    1332:	e0 0a 07    	rcall     0x28f4 <_as3993SingleWrite>
    1334:	89 40 78    	mov.b     w9, w1
    1336:	80 c0 b3    	mov.b     #0x8, w0
    1338:	dd 0a 07    	rcall     0x28f4 <_as3993SingleWrite>
    133a:	0a 01 be    	mov.d     w10, w2
    133c:	70 c1 b3    	mov.b     #0x17, w0
    133e:	9d 0b 07    	rcall     0x2a7a <_as3993SetBaseFrequency>
    1340:	10 c0 b3    	mov.b     #0x1, w0
    1342:	4c fb 07    	rcall     0x9dc <_checkAndSetSession>
    1344:	99 43 88    	mov.w     w9, 0x872
    1346:	18 43 88    	mov.w     w8, 0x862
    1348:	09 00 78    	mov.w     w9, w0
    134a:	64 e8 b7    	mov.b     WREG, 0x864
    134c:	10 c0 b3    	mov.b     #0x1, w0
    134e:	ee 0c 07    	rcall     0x2d2c <_as3993AntennaPower>
    1350:	00 e8 23    	mov.w     #0x3e80, w0
    1352:	01 00 20    	mov.w     #0x0, w1
    1354:	f0 1a 07    	rcall     0x4936 <___delay32>
    1356:	ae 1a 07    	rcall     0x48b4 <_slowTimerStart>

00001358 <.L228>:
    1358:	60 43 80    	mov.w     0x86c, w0
    135a:	60 40 90    	mov.b     [w0+6], w0
    135c:	e1 4f 50    	sub.b     w0, #0x1, [w15]
    135e:	02 00 3a    	bra       NZ, 0x1364 <.L229>
    1360:	ae fe 07    	rcall     0x10be <_pseudoRandomContinuousModulation>
    1362:	09 00 37    	bra       0x1376 <.L231>

00001364 <.L229>:
    1364:	17 c0 b3    	mov.b     #0x1, w7
    1366:	00 43 eb    	clr.b     w6
    1368:	86 42 78    	mov.b     w6, w5
    136a:	0e 02 78    	mov.w     w14, w4
    136c:	80 01 eb    	clr.w     w3
    136e:	03 01 78    	mov.w     w3, w2
    1370:	83 00 78    	mov.w     w3, w1
    1372:	e0 c9 b3    	mov.b     #0x9e, w0
    1374:	fc 0d 07    	rcall     0x2f6e <_as3993TxRxGen2Bytes>

00001376 <.L231>:
    1376:	f2 3d ef    	clr.w     0x1df2
    1378:	22 fb 07    	rcall     0x9be <_continueCheckTimeout>
    137a:	00 00 e0    	cp0.w     w0
    137c:	ed ff 3a    	bra       NZ, 0x1358 <.L228>
    137e:	d6 0c 07    	rcall     0x2d2c <_as3993AntennaPower>
    1380:	8d 40 78    	mov.b     w13, w1
    1382:	70 c0 b3    	mov.b     #0x7, w0
    1384:	b7 0a 07    	rcall     0x28f4 <_as3993SingleWrite>
    1386:	8c 40 78    	mov.b     w12, w1
    1388:	80 c0 b3    	mov.b     #0x8, w0
    138a:	b4 0a 07    	rcall     0x28f4 <_as3993SingleWrite>
    138c:	35 02 07    	rcall     0x17f8 <_powerDownReader>
    138e:	09 00 37    	bra       0x13a2 <.L233>

00001390 <.L201>:
    1390:	20 00 20    	mov.w     #0x2, w0
    1392:	90 43 88    	mov.w     w0, 0x872
    1394:	80 c0 eb    	setm.b    w1
    1396:	80 43 80    	mov.w     0x870, w0
    1398:	01 48 78    	mov.b     w1, [w0]
    139a:	80 43 80    	mov.w     0x870, w0
    139c:	11 40 98    	mov.b     w1, [w0+1]
    139e:	b0 cf b3    	mov.b     #0xfb, w0
    13a0:	74 e8 b7    	mov.b     WREG, 0x874

000013a2 <.L233>:
    13a2:	4f 06 be    	mov.d     [--w15], w12
    13a4:	4f 05 be    	mov.d     [--w15], w10
    13a6:	4f 04 be    	mov.d     [--w15], w8
    13a8:	00 80 fa    	ulnk      
    13aa:	00 00 06    	return    

000013ac <_callReadFromTag>:
    13ac:	00 00 fa    	lnk       #0x0
    13ae:	39 02 07    	rcall     0x1822 <_powerUpReader>
    13b0:	10 c0 b3    	mov.b     #0x1, w0
    13b2:	14 fb 07    	rcall     0x9dc <_checkAndSetSession>
    13b4:	02 00 07    	rcall     0x13ba <_readFromTag>
    13b6:	00 80 fa    	ulnk      
    13b8:	00 00 06    	return    

000013ba <_readFromTag>:
    13ba:	08 00 fa    	lnk       #0x8
    13bc:	88 9f be    	mov.d     w8, [w15++]
    13be:	8a 9f be    	mov.d     w10, [w15++]
    13c0:	8c 9f be    	mov.d     w12, [w15++]
    13c2:	60 43 80    	mov.w     0x86c, w0
    13c4:	b0 40 78    	mov.b     [w0++], w1
    13c6:	61 47 98    	mov.b     w1, [w14+6]
    13c8:	5b 16 07    	rcall     0x4080 <_readU32FromLittleEndianBuffer>
    13ca:	00 05 be    	mov.d     w0, w10
    13cc:	92 43 80    	mov.w     0x872, w2
    13ce:	02 46 78    	mov.b     w2, w12
    13d0:	80 43 80    	mov.w     0x870, w0
    13d2:	80 00 eb    	clr.w     w1
    13d4:	80 f9 07    	rcall     0x6d6
    13d6:	be 01 07    	rcall     0x1754 <_hopFrequencies>
    13d8:	00 44 78    	mov.b     w0, w8
    13da:	00 04 e0    	cp0.b     w0
    13dc:	5a 00 3a    	bra       NZ, 0x1492 <.L239>
    13de:	33 fb 07    	rcall     0xa46 <_powerAndSelectTag>
    13e0:	f8 cb b3    	mov.b     #0xbf, w8
    13e2:	19 c0 b3    	mov.b     #0x1, w9
    13e4:	5e 48 e2    	cp0.b     0x85e
    13e6:	56 00 32    	bra       Z, 0x1494 <.L243>
    13e8:	62 43 80    	mov.w     0x86c, w2
    13ea:	e5 00 41    	add.w     w2, #0x5, w1
    13ec:	11 04 e0    	cp0.b     [w1]
    13ee:	0b 00 3a    	bra       NZ, 0x1406 <.L244>
    13f0:	62 40 90    	mov.b     [w2+6], w0
    13f2:	00 04 e0    	cp0.b     w0
    13f4:	08 00 3a    	bra       NZ, 0x1406 <.L244>
    13f6:	72 40 90    	mov.b     [w2+7], w0
    13f8:	00 04 e0    	cp0.b     w0
    13fa:	05 00 3a    	bra       NZ, 0x1406 <.L244>
    13fc:	02 48 90    	mov.b     [w2+8], w0
    13fe:	00 04 e0    	cp0.b     w0
    1400:	02 00 3a    	bra       NZ, 0x1406 <.L244>
    1402:	00 44 78    	mov.b     w0, w8
    1404:	08 00 37    	bra       0x1416 <.L249>

00001406 <.L244>:
    1406:	c0 8f 80    	mov.w     0x11f8, w0
    1408:	de 05 07    	rcall     0x1fc6 <_gen2AccessTag>
    140a:	00 44 78    	mov.b     w0, w8
    140c:	00 04 e0    	cp0.b     w0
    140e:	03 00 32    	bra       Z, 0x1416 <.L249>
    1410:	e8 cb b3    	mov.b     #0xbe, w8
    1412:	19 c0 b3    	mov.b     #0x1, w9
    1414:	3f 00 37    	bra       0x1494 <.L243>

00001416 <.L249>:
    1416:	0c 80 fb    	ze        w12, w0
    1418:	00 08 a3    	btst.z    w0, #0x0
    141a:	2a 00 32    	bra       Z, 0x1470 <.L251>
    141c:	8c 43 80    	mov.w     0x870, w12
    141e:	00 00 d1    	lsr.w     w0, w0
    1420:	00 4f 78    	mov.b     w0, [w14]
    1422:	80 44 eb    	clr.b     w9
    1424:	08 04 e0    	cp0.b     w8
    1426:	20 00 3a    	bra       NZ, 0x1468 <.L255>
    1428:	3f 00 37    	bra       0x14a8 <.L253>

0000142a <.L256>:
    142a:	61 00 45    	add.w     w10, #0x1, w0
    142c:	e0 80 4d    	addc.w    w11, #0x0, w1
    142e:	10 07 98    	mov.w     w0, [w14+2]
    1430:	21 07 98    	mov.w     w1, [w14+4]
    1432:	c0 8f 80    	mov.w     0x11f8, w0
    1434:	8c 02 78    	mov.w     w12, w5
    1436:	14 c0 b3    	mov.b     #0x1, w4
    1438:	0a 01 be    	mov.d     w10, w2
    143a:	ee 40 90    	mov.b     [w14+6], w1
    143c:	d4 06 07    	rcall     0x21e6 <_gen2ReadFromTag>
    143e:	00 44 78    	mov.b     w0, w8
    1440:	e0 cd b3    	mov.b     #0xde, w0
    1442:	80 4f 54    	sub.b     w8, w0, [w15]
    1444:	02 00 3a    	bra       NZ, 0x144a <.L257>
    1446:	89 44 e8    	inc.b     w9, w9
    1448:	03 00 37    	bra       0x1450 <.L259>

0000144a <.L257>:
    144a:	08 04 e0    	cp0.b     w8
    144c:	01 00 3a    	bra       NZ, 0x1450 <.L259>
    144e:	89 c4 e8    	inc2.b    w9, w9

00001450 <.L259>:
    1450:	0c 86 e8    	inc2.w    w12, w12
    1452:	8d 46 e9    	dec.b     w13, w13
    1454:	08 04 e0    	cp0.b     w8
    1456:	08 00 3a    	bra       NZ, 0x1468 <.L255>
    1458:	0d 04 e0    	cp0.b     w13
    145a:	05 00 32    	bra       Z, 0x1466 <.L262>
    145c:	1e 05 90    	mov.w     [w14+2], w10
    145e:	ae 05 90    	mov.w     [w14+4], w11

00001460 <.L264>:
    1460:	ae fa 07    	rcall     0x9be <_continueCheckTimeout>
    1462:	00 00 e0    	cp0.w     w0
    1464:	e2 ff 3a    	bra       NZ, 0x142a <.L256>

00001466 <.L262>:
    1466:	00 44 eb    	clr.b     w8

00001468 <.L255>:
    1468:	64 48 e2    	cp0.b     0x864
    146a:	14 00 32    	bra       Z, 0x1494 <.L243>
    146c:	c8 cb b3    	mov.b     #0xbc, w8
    146e:	12 00 37    	bra       0x1494 <.L243>

00001470 <.L251>:
    1470:	0c 82 fb    	ze        w12, w4
    1472:	04 02 d1    	lsr.w     w4, w4
    1474:	04 46 78    	mov.b     w4, w12
    1476:	c0 8f 80    	mov.w     0x11f8, w0
    1478:	85 43 80    	mov.w     0x870, w5
    147a:	0a 01 be    	mov.d     w10, w2
    147c:	ee 40 90    	mov.b     [w14+6], w1
    147e:	b3 06 07    	rcall     0x21e6 <_gen2ReadFromTag>
    1480:	00 44 78    	mov.b     w0, w8
    1482:	e0 cd b3    	mov.b     #0xde, w0
    1484:	80 4f 54    	sub.b     w8, w0, [w15]
    1486:	05 00 32    	bra       Z, 0x1492 <.L239>
    1488:	80 44 eb    	clr.b     w9
    148a:	08 04 e0    	cp0.b     w8
    148c:	03 00 3a    	bra       NZ, 0x1494 <.L243>
    148e:	8c 44 46    	add.b     w12, w12, w9
    1490:	01 00 37    	bra       0x1494 <.L243>

00001492 <.L239>:
    1492:	19 c0 b3    	mov.b     #0x1, w9

00001494 <.L243>:
    1494:	9c 01 07    	rcall     0x17ce <_hopChannelRelease>
    1496:	09 80 fb    	ze        w9, w0
    1498:	90 43 88    	mov.w     w0, 0x872
    149a:	08 00 78    	mov.w     w8, w0
    149c:	74 e8 b7    	mov.b     WREG, 0x874
    149e:	4f 06 be    	mov.d     [--w15], w12
    14a0:	4f 05 be    	mov.d     [--w15], w10
    14a2:	4f 04 be    	mov.d     [--w15], w8
    14a4:	00 80 fa    	ulnk      
    14a6:	00 00 06    	return    

000014a8 <.L253>:
    14a8:	9e 40 78    	mov.b     [w14], w1
    14aa:	01 04 e0    	cp0.b     w1
    14ac:	03 00 3a    	bra       NZ, 0x14b4 <.L269>
    14ae:	01 44 78    	mov.b     w1, w8
    14b0:	81 44 78    	mov.b     w1, w9
    14b2:	da ff 37    	bra       0x1468 <.L255>

000014b4 <.L269>:
    14b4:	9e 46 78    	mov.b     [w14], w13
    14b6:	80 44 eb    	clr.b     w9
    14b8:	d3 ff 37    	bra       0x1460 <.L264>

000014ba <_callLockUnlockTag>:
    14ba:	00 00 fa    	lnk       #0x0
    14bc:	b2 01 07    	rcall     0x1822 <_powerUpReader>
    14be:	10 c0 b3    	mov.b     #0x1, w0
    14c0:	8d fa 07    	rcall     0x9dc <_checkAndSetSession>
    14c2:	02 00 07    	rcall     0x14c8 <_lockUnlockTag>
    14c4:	00 80 fa    	ulnk      
    14c6:	00 00 06    	return    

000014c8 <_lockUnlockTag>:
    14c8:	00 00 fa    	lnk       #0x0
    14ca:	88 9f be    	mov.d     w8, [w15++]
    14cc:	69 43 80    	mov.w     0x86c, w9
    14ce:	42 01 07    	rcall     0x1754 <_hopFrequencies>
    14d0:	00 44 78    	mov.b     w0, w8
    14d2:	00 04 e0    	cp0.b     w0
    14d4:	1d 00 3a    	bra       NZ, 0x1510 <.L275>
    14d6:	b7 fa 07    	rcall     0xa46 <_powerAndSelectTag>
    14d8:	f8 cb b3    	mov.b     #0xbf, w8
    14da:	5e 48 e2    	cp0.b     0x85e
    14dc:	19 00 32    	bra       Z, 0x1510 <.L275>
    14de:	62 43 80    	mov.w     0x86c, w2
    14e0:	e3 00 41    	add.w     w2, #0x3, w1
    14e2:	11 04 e0    	cp0.b     [w1]
    14e4:	09 00 3a    	bra       NZ, 0x14f8 <.L279>
    14e6:	42 40 90    	mov.b     [w2+4], w0
    14e8:	00 04 e0    	cp0.b     w0
    14ea:	06 00 3a    	bra       NZ, 0x14f8 <.L279>
    14ec:	52 40 90    	mov.b     [w2+5], w0
    14ee:	00 04 e0    	cp0.b     w0
    14f0:	03 00 3a    	bra       NZ, 0x14f8 <.L279>
    14f2:	62 40 90    	mov.b     [w2+6], w0
    14f4:	00 04 e0    	cp0.b     w0
    14f6:	05 00 32    	bra       Z, 0x1502 <.L283>

000014f8 <.L279>:
    14f8:	c0 8f 80    	mov.w     0x11f8, w0
    14fa:	65 05 07    	rcall     0x1fc6 <_gen2AccessTag>
    14fc:	00 44 78    	mov.b     w0, w8
    14fe:	00 04 e0    	cp0.b     w0
    1500:	07 00 3a    	bra       NZ, 0x1510 <.L275>

00001502 <.L283>:
    1502:	82 43 80    	mov.w     0x870, w2
    1504:	c0 8f 80    	mov.w     0x11f8, w0
    1506:	89 00 78    	mov.w     w9, w1
    1508:	9c 05 07    	rcall     0x2042 <_gen2LockTag>
    150a:	00 44 78    	mov.b     w0, w8
    150c:	00 04 e0    	cp0.b     w0
    150e:	03 00 32    	bra       Z, 0x1516 <.L285>

00001510 <.L275>:
    1510:	00 20 2e    	mov.w     #0xe200, w0
    1512:	41 00 20    	mov.w     #0x4, w1
    1514:	10 1a 07    	rcall     0x4936 <___delay32>

00001516 <.L285>:
    1516:	5b 01 07    	rcall     0x17ce <_hopChannelRelease>
    1518:	08 00 78    	mov.w     w8, w0
    151a:	74 e8 b7    	mov.b     WREG, 0x874
    151c:	10 00 20    	mov.w     #0x1, w0
    151e:	90 43 88    	mov.w     w0, 0x872
    1520:	4f 04 be    	mov.d     [--w15], w8
    1522:	00 80 fa    	ulnk      
    1524:	00 00 06    	return    

00001526 <_callKillTag>:
    1526:	00 00 fa    	lnk       #0x0
    1528:	88 9f be    	mov.d     w8, [w15++]
    152a:	8a 9f be    	mov.d     w10, [w15++]
    152c:	69 43 80    	mov.w     0x86c, w9
    152e:	c9 45 90    	mov.b     [w9+4], w11
    1530:	59 45 90    	mov.b     [w9+5], w10
    1532:	77 01 07    	rcall     0x1822 <_powerUpReader>
    1534:	10 c0 b3    	mov.b     #0x1, w0
    1536:	52 fa 07    	rcall     0x9dc <_checkAndSetSession>
    1538:	0d 01 07    	rcall     0x1754 <_hopFrequencies>
    153a:	00 44 78    	mov.b     w0, w8
    153c:	00 04 e0    	cp0.b     w0
    153e:	0d 00 3a    	bra       NZ, 0x155a <.L288>
    1540:	82 fa 07    	rcall     0xa46 <_powerAndSelectTag>
    1542:	f8 cb b3    	mov.b     #0xbf, w8
    1544:	5e 48 e2    	cp0.b     0x85e
    1546:	09 00 32    	bra       Z, 0x155a <.L288>
    1548:	c0 8f 80    	mov.w     0x11f8, w0
    154a:	84 43 80    	mov.w     0x870, w4
    154c:	8a 41 78    	mov.b     w10, w3
    154e:	0b 41 78    	mov.b     w11, w2
    1550:	89 00 78    	mov.w     w9, w1
    1552:	a6 05 07    	rcall     0x20a0 <_gen2KillTag>
    1554:	00 44 78    	mov.b     w0, w8
    1556:	00 04 e0    	cp0.b     w0
    1558:	03 00 32    	bra       Z, 0x1560 <.L293>

0000155a <.L288>:
    155a:	00 20 2e    	mov.w     #0xe200, w0
    155c:	41 00 20    	mov.w     #0x4, w1
    155e:	eb 19 07    	rcall     0x4936 <___delay32>

00001560 <.L293>:
    1560:	36 01 07    	rcall     0x17ce <_hopChannelRelease>
    1562:	10 00 20    	mov.w     #0x1, w0
    1564:	90 43 88    	mov.w     w0, 0x872
    1566:	08 00 78    	mov.w     w8, w0
    1568:	74 e8 b7    	mov.b     WREG, 0x874
    156a:	4f 05 be    	mov.d     [--w15], w10
    156c:	4f 04 be    	mov.d     [--w15], w8
    156e:	00 80 fa    	ulnk      
    1570:	00 00 06    	return    

00001572 <_callStartStop>:
    1572:	00 00 fa    	lnk       #0x0
    1574:	62 43 80    	mov.w     0x86c, w2
    1576:	12 04 e0    	cp0.b     [w2]
    1578:	10 00 32    	bra       Z, 0x159a <.L296>
    157a:	12 40 90    	mov.b     [w2+1], w0
    157c:	65 e8 b7    	mov.b     WREG, 0x865
    157e:	00 04 e0    	cp0.b     w0
    1580:	0c 00 32    	bra       Z, 0x159a <.L296>
    1582:	22 40 90    	mov.b     [w2+2], w0
    1584:	66 e8 b7    	mov.b     WREG, 0x866
    1586:	e3 00 41    	add.w     w2, #0x3, w1
    1588:	91 41 78    	mov.b     [w1], w3
    158a:	61 c0 61    	and.b     w3, #0x1, w0
    158c:	67 e8 b7    	mov.b     WREG, 0x867
    158e:	11 80 fb    	ze        [w1], w0
    1590:	62 00 60    	and.w     w0, #0x2, w0
    1592:	00 80 d1    	asr.w     w0, w0
    1594:	68 e8 b7    	mov.b     WREG, 0x868
    1596:	42 40 90    	mov.b     [w2+4], w0
    1598:	69 e8 b7    	mov.b     WREG, 0x869

0000159a <.L296>:
    159a:	00 00 eb    	clr.w     w0
    159c:	90 43 88    	mov.w     w0, 0x872
    159e:	74 e8 b7    	mov.b     WREG, 0x874
    15a0:	65 48 e2    	cp0.b     0x865
    15a2:	01 00 3a    	bra       NZ, 0x15a6 <.L301>
    15a4:	29 01 07    	rcall     0x17f8 <_powerDownReader>

000015a6 <.L301>:
    15a6:	00 80 fa    	ulnk      
    15a8:	00 00 06    	return    

000015aa <_callGenericCommand>:
    15aa:	00 00 fa    	lnk       #0x0
    15ac:	3a 01 07    	rcall     0x1822 <_powerUpReader>
    15ae:	10 c0 b3    	mov.b     #0x1, w0
    15b0:	15 fa 07    	rcall     0x9dc <_checkAndSetSession>
    15b2:	02 00 07    	rcall     0x15b8 <_executeGenericCommand>
    15b4:	00 80 fa    	ulnk      
    15b6:	00 00 06    	return    

000015b8 <_executeGenericCommand>:
    15b8:	ca 00 fa    	lnk       #0xca
    15ba:	88 9f be    	mov.d     w8, [w15++]
    15bc:	8a 9f be    	mov.d     w10, [w15++]
    15be:	8c 9f be    	mov.d     w12, [w15++]
    15c0:	80 43 80    	mov.w     0x870, w0
    15c2:	92 43 80    	mov.w     0x872, w2
    15c4:	80 00 eb    	clr.w     w1
    15c6:	87 f8 07    	rcall     0x6d6
    15c8:	c5 00 07    	rcall     0x1754 <_hopFrequencies>
    15ca:	00 44 78    	mov.b     w0, w8
    15cc:	19 00 20    	mov.w     #0x1, w9
    15ce:	00 04 e0    	cp0.b     w0
    15d0:	50 00 3a    	bra       NZ, 0x1672 <.L307>
    15d2:	39 fa 07    	rcall     0xa46 <_powerAndSelectTag>
    15d4:	f8 cb b3    	mov.b     #0xbf, w8
    15d6:	19 00 20    	mov.w     #0x1, w9
    15d8:	5e 48 e2    	cp0.b     0x85e
    15da:	4b 00 32    	bra       Z, 0x1672 <.L307>
    15dc:	61 43 80    	mov.w     0x86c, w1
    15de:	11 04 e0    	cp0.b     [w1]
    15e0:	09 00 3a    	bra       NZ, 0x15f4 <.L310>
    15e2:	11 40 90    	mov.b     [w1+1], w0
    15e4:	00 04 e0    	cp0.b     w0
    15e6:	06 00 3a    	bra       NZ, 0x15f4 <.L310>
    15e8:	21 40 90    	mov.b     [w1+2], w0
    15ea:	00 04 e0    	cp0.b     w0
    15ec:	03 00 3a    	bra       NZ, 0x15f4 <.L310>
    15ee:	31 40 90    	mov.b     [w1+3], w0
    15f0:	00 04 e0    	cp0.b     w0
    15f2:	06 00 32    	bra       Z, 0x1600 <.L314>

000015f4 <.L310>:
    15f4:	c0 8f 80    	mov.w     0x11f8, w0
    15f6:	e7 04 07    	rcall     0x1fc6 <_gen2AccessTag>
    15f8:	e8 cb b3    	mov.b     #0xbe, w8
    15fa:	19 00 20    	mov.w     #0x1, w9
    15fc:	00 04 e0    	cp0.b     w0
    15fe:	39 00 3a    	bra       NZ, 0x1672 <.L307>

00001600 <.L314>:
    1600:	63 43 80    	mov.w     0x86c, w3
    1602:	d3 40 90    	mov.b     [w3+5], w1
    1604:	81 80 fb    	ze        w1, w1
    1606:	43 40 90    	mov.b     [w3+4], w0
    1608:	00 80 fb    	ze        w0, w0
    160a:	44 00 dd    	sl.w      w0, #0x4, w0
    160c:	44 09 de    	lsr.w     w1, #0x4, w2
    160e:	02 05 70    	ior.w     w0, w2, w10
    1610:	ef 80 60    	and.w     w1, #0xf, w1
    1612:	c8 08 dd    	sl.w      w1, #0x8, w1
    1614:	63 40 90    	mov.b     [w3+6], w0
    1616:	00 80 fb    	ze        w0, w0
    1618:	00 8f 70    	ior.w     w1, w0, [w14]
    161a:	f3 46 90    	mov.b     [w3+7], w13
    161c:	03 4e 90    	mov.b     [w3+8], w12
    161e:	69 00 55    	sub.w     w10, #0x9, w0
    1620:	43 01 de    	lsr.w     w0, #0x3, w2
    1622:	43 10 dd    	sl.w      w2, #0x3, w0
    1624:	0a 00 50    	sub.w     w0, w10, w0
    1626:	f0 04 40    	add.w     w0, #0x10, w9
    1628:	82 05 e9    	dec.w     w2, w11
    162a:	09 00 e0    	cp0.w     w9
    162c:	02 00 3a    	bra       NZ, 0x1632 <.L316>
    162e:	82 05 78    	mov.w     w2, w11
    1630:	89 00 20    	mov.w     #0x8, w9

00001632 <.L316>:
    1632:	e9 80 41    	add.w     w3, #0x9, w1
    1634:	0e 84 e8    	inc2.w    w14, w8
    1636:	83 c0 b3    	mov.b     #0x8, w3
    1638:	08 00 78    	mov.w     w8, w0
    163a:	f6 14 07    	rcall     0x4028 <_insertBitStream>
    163c:	c1 8f 80    	mov.w     0x11f8, w1
    163e:	51 02 b0    	add.w     #0x25, w1
    1640:	0b 00 44    	add.w     w8, w11, w0
    1642:	89 41 78    	mov.b     w9, w3
    1644:	22 c0 b3    	mov.b     #0x2, w2
    1646:	f0 14 07    	rcall     0x4028 <_insertBitStream>
    1648:	83 43 80    	mov.w     0x870, w3
    164a:	83 81 e8    	inc2.w    w3, w3
    164c:	17 c0 b3    	mov.b     #0x1, w7
    164e:	00 43 eb    	clr.b     w6
    1650:	8c 42 78    	mov.b     w12, w5
    1652:	0e 02 78    	mov.w     w14, w4
    1654:	0a 01 78    	mov.w     w10, w2
    1656:	88 00 78    	mov.w     w8, w1
    1658:	0d 40 78    	mov.b     w13, w0
    165a:	89 0c 07    	rcall     0x2f6e <_as3993TxRxGen2Bytes>
    165c:	00 44 78    	mov.b     w0, w8
    165e:	80 43 80    	mov.w     0x870, w0
    1660:	9e 40 78    	mov.b     [w14], w1
    1662:	11 40 98    	mov.b     w1, [w0+1]
    1664:	9e 00 78    	mov.w     [w14], w1
    1666:	67 80 40    	add.w     w1, #0x7, w0
    1668:	43 00 de    	lsr.w     w0, #0x3, w0
    166a:	80 84 e8    	inc2.w    w0, w9
    166c:	00 20 2e    	mov.w     #0xe200, w0
    166e:	41 00 20    	mov.w     #0x4, w1
    1670:	62 19 07    	rcall     0x4936 <___delay32>

00001672 <.L307>:
    1672:	ad 00 07    	rcall     0x17ce <_hopChannelRelease>
    1674:	80 43 80    	mov.w     0x870, w0
    1676:	08 48 78    	mov.b     w8, [w0]
    1678:	99 43 88    	mov.w     w9, 0x872
    167a:	08 00 78    	mov.w     w8, w0
    167c:	74 e8 b7    	mov.b     WREG, 0x874
    167e:	4f 06 be    	mov.d     [--w15], w12
    1680:	4f 05 be    	mov.d     [--w15], w10
    1682:	4f 04 be    	mov.d     [--w15], w8
    1684:	00 80 fa    	ulnk      
    1686:	00 00 06    	return    

00001688 <_callRSSIMeasureCMD>:
    1688:	00 00 fa    	lnk       #0x0
    168a:	cb 00 07    	rcall     0x1822 <_powerUpReader>
    168c:	10 c0 b3    	mov.b     #0x1, w0
    168e:	a6 f9 07    	rcall     0x9dc <_checkAndSetSession>
    1690:	02 00 07    	rcall     0x1696 <_executeRSSICMD>
    1692:	00 80 fa    	ulnk      
    1694:	00 00 06    	return    

00001696 <_executeRSSICMD>:
    1696:	00 00 fa    	lnk       #0x0
    1698:	88 9f be    	mov.d     w8, [w15++]
    169a:	8a 9f be    	mov.d     w10, [w15++]
    169c:	8c 9f be    	mov.d     w12, [w15++]
    169e:	98 43 80    	mov.w     0x872, w8
    16a0:	42 44 de    	lsr.w     w8, #0x2, w8
    16a2:	8b 43 80    	mov.w     0x870, w11
    16a4:	62 43 80    	mov.w     0x86c, w2
    16a6:	12 40 78    	mov.b     [w2], w0
    16a8:	00 82 fb    	ze        w0, w4
    16aa:	05 00 20    	mov.w     #0x0, w5
    16ac:	12 40 90    	mov.b     [w2+1], w0
    16ae:	48 00 dd    	sl.w      w0, #0x8, w0
    16b0:	01 00 20    	mov.w     #0x0, w1
    16b2:	04 02 40    	add.w     w0, w4, w4
    16b4:	85 82 48    	addc.w    w1, w5, w5
    16b6:	22 40 90    	mov.b     [w2+2], w0
    16b8:	80 80 fb    	ze        w0, w1
    16ba:	00 00 20    	mov.w     #0x0, w0
    16bc:	04 06 40    	add.w     w0, w4, w12
    16be:	85 86 48    	addc.w    w1, w5, w13
    16c0:	72 28 ef    	clr.w     0x872
    16c2:	10 c0 b3    	mov.b     #0x1, w0
    16c4:	33 0b 07    	rcall     0x2d2c <_as3993AntennaPower>
    16c6:	0c 01 be    	mov.d     w12, w2
    16c8:	70 c1 b3    	mov.b     #0x17, w0
    16ca:	d7 09 07    	rcall     0x2a7a <_as3993SetBaseFrequency>
    16cc:	ac f9 07    	rcall     0xa26 <_performSelects>
    16ce:	08 41 e9    	dec.b     w8, w2
    16d0:	e1 4f 41    	add.b     w2, #0x1, [w15]
    16d2:	1e 00 32    	bra       Z, 0x1710 <.L322>
    16d4:	0b 05 e8    	inc.w     w11, w10
    16d6:	8b 84 e8    	inc2.w    w11, w9
    16d8:	63 84 45    	add.w     w11, #0x3, w8
    16da:	02 46 78    	mov.b     w2, w12
    16dc:	00 80 eb    	setm.w    w0
    16de:	00 90 b9    	mul.ss    w2, w0, w0
    16e0:	00 40 41    	add.b     w2, w0, w0
    16e2:	80 46 e9    	dec.b     w0, w13

000016e4 <.L324>:
    16e4:	88 01 78    	mov.w     w8, w3
    16e6:	09 01 78    	mov.w     w9, w2
    16e8:	8a 00 78    	mov.w     w10, w1
    16ea:	0b 00 78    	mov.w     w11, w0
    16ec:	e3 02 07    	rcall     0x1cb4 <_gen2QueryMeasureRSSI>
    16ee:	00 04 e0    	cp0.b     w0
    16f0:	06 00 32    	bra       Z, 0x16fe <.L325>
    16f2:	00 40 eb    	clr.b     w0
    16f4:	80 4d 78    	mov.b     w0, [w11]
    16f6:	00 4d 78    	mov.b     w0, [w10]
    16f8:	00 c8 b3    	mov.b     #0x80, w0
    16fa:	80 4c 78    	mov.b     w0, [w9]
    16fc:	00 4c 78    	mov.b     w0, [w8]

000016fe <.L325>:
    16fe:	e4 85 45    	add.w     w11, #0x4, w11
    1700:	40 00 20    	mov.w     #0x4, w0
    1702:	72 28 b4    	add.w     0x872
    1704:	0c 46 e9    	dec.b     w12, w12
    1706:	00 05 45    	add.w     w10, w0, w10
    1708:	80 84 44    	add.w     w9, w0, w9
    170a:	00 04 44    	add.w     w8, w0, w8
    170c:	8d 4f 56    	sub.b     w12, w13, [w15]
    170e:	ea ff 3a    	bra       NZ, 0x16e4 <.L324>

00001710 <.L322>:
    1710:	00 40 eb    	clr.b     w0
    1712:	0c 0b 07    	rcall     0x2d2c <_as3993AntennaPower>
    1714:	4f 06 be    	mov.d     [--w15], w12
    1716:	4f 05 be    	mov.d     [--w15], w10
    1718:	4f 04 be    	mov.d     [--w15], w8
    171a:	00 80 fa    	ulnk      
    171c:	00 00 06    	return    

0000171e <_initCommands>:
    171e:	00 00 fa    	lnk       #0x0
    1720:	00 40 eb    	clr.b     w0
    1722:	02 e8 b7    	mov.b     WREG, 0x802
    1724:	65 e8 b7    	mov.b     WREG, 0x865
    1726:	67 e8 b7    	mov.b     WREG, 0x867
    1728:	68 e8 b7    	mov.b     WREG, 0x868
    172a:	12 c0 b3    	mov.b     #0x1, w2
    172c:	00 01 fd    	exch      w0, w2
    172e:	66 e8 b7    	mov.b     WREG, 0x866
    1730:	00 01 fd    	exch      w0, w2
    1732:	61 c0 b3    	mov.b     #0x6, w1
    1734:	80 00 fd    	exch      w0, w1
    1736:	69 e8 b7    	mov.b     WREG, 0x869
    1738:	80 00 fd    	exch      w0, w1
    173a:	81 cd b3    	mov.b     #0xd8, w1
    173c:	80 00 fd    	exch      w0, w1
    173e:	60 e8 b7    	mov.b     WREG, 0x860
    1740:	80 00 fd    	exch      w0, w1
    1742:	00 01 fd    	exch      w0, w2
    1744:	6a e8 b7    	mov.b     WREG, 0x86a
    1746:	00 01 fd    	exch      w0, w2
    1748:	5f e8 b7    	mov.b     WREG, 0x85f
    174a:	5e e8 b7    	mov.b     WREG, 0x85e
    174c:	ef 0a 07    	rcall     0x2d2c <_as3993AntennaPower>
    174e:	54 00 07    	rcall     0x17f8 <_powerDownReader>
    1750:	00 80 fa    	ulnk      
    1752:	00 00 06    	return    

00001754 <_hopFrequencies>:
    1754:	00 00 fa    	lnk       #0x0
    1756:	ae 18 07    	rcall     0x48b4 <_slowTimerStart>
    1758:	64 00 07    	rcall     0x1822 <_powerUpReader>
    175a:	00 40 eb    	clr.b     w0
    175c:	e7 0a 07    	rcall     0x2d2c <_as3993AntennaPower>
    175e:	b4 18 07    	rcall     0x48c8 <_slowTimerValue>
    1760:	00 02 78    	mov.w     w0, w4
    1762:	00 40 80    	mov.w     0x800, w0
    1764:	80 0f 52    	sub.w     w4, w0, [w15]
    1766:	13 00 31    	bra       C, 0x178e <.L332>
    1768:	01 00 20    	mov.w     #0x0, w1
    176a:	02 00 20    	mov.w     #0x0, w2
    176c:	03 00 20    	mov.w     #0x0, w3
    176e:	05 00 20    	mov.w     #0x0, w5
    1770:	06 00 20    	mov.w     #0x0, w6
    1772:	07 00 20    	mov.w     #0x0, w7
    1774:	04 00 50    	sub.w     w0, w4, w0
    1776:	85 80 58    	subb.w    w1, w5, w1
    1778:	06 01 59    	subb.w    w2, w6, w2
    177a:	87 81 59    	subb.w    w3, w7, w3
    177c:	04 40 22    	mov.w     #0x2400, w4
    177e:	45 0f 20    	mov.w     #0xf4, w5
    1780:	60 33 b8    	mul.uu    w6, #0x0, w6
    1782:	3e f7 07    	rcall     0x600
    1784:	84 3e 20    	mov.w     #0x3e8, w4
    1786:	05 00 20    	mov.w     #0x0, w5
    1788:	60 33 b8    	mul.uu    w6, #0x0, w6
    178a:	c5 f6 07    	rcall     0x516 <___udivdi3>
    178c:	d4 18 07    	rcall     0x4936 <___delay32>

0000178e <.L332>:
    178e:	a0 18 07    	rcall     0x48d0 <_slowTimerStop>
    1790:	fa d1 bf    	mov.b     0x11fa, WREG
    1792:	06 00 3a    	bra       NZ, 0x17a0 <.L334>
    1794:	c0 fb 2f    	mov.w     #0xffbc, w0
    1796:	65 48 e2    	cp0.b     0x865
    1798:	18 00 3a    	bra       NZ, 0x17ca <.L338>
    179a:	2e 00 07    	rcall     0x17f8 <_powerDownReader>
    179c:	c0 fb 2f    	mov.w     #0xffbc, w0
    179e:	15 00 37    	bra       0x17ca <.L338>

000017a0 <.L334>:
    17a0:	b1 43 80    	mov.w     0x876, w1
    17a2:	81 00 e8    	inc.w     w1, w1
    17a4:	b1 43 88    	mov.w     w1, 0x876
    17a6:	00 80 fb    	ze        w0, w0
    17a8:	80 8f 50    	sub.w     w1, w0, [w15]
    17aa:	01 00 39    	bra       NC, 0x17ae <.L339>
    17ac:	76 28 ef    	clr.w     0x876

000017ae <.L339>:
    17ae:	b0 43 80    	mov.w     0x876, w0
    17b0:	42 00 dd    	sl.w      w0, #0x2, w0
    17b2:	c1 1f 21    	mov.w     #0x11fc, w1
    17b4:	01 00 40    	add.w     w0, w1, w0
    17b6:	10 01 be    	mov.d     [w0], w2
    17b8:	70 c1 b3    	mov.b     #0x17, w0
    17ba:	5f 09 07    	rcall     0x2a7a <_as3993SetBaseFrequency>
    17bc:	40 ef 80    	mov.w     0x1de8, w0
    17be:	10 43 88    	mov.w     w0, 0x862
    17c0:	79 18 07    	rcall     0x48b4 <_slowTimerStart>
    17c2:	64 68 ef    	clr.b     0x864
    17c4:	10 c0 b3    	mov.b     #0x1, w0
    17c6:	b2 0a 07    	rcall     0x2d2c <_as3993AntennaPower>
    17c8:	00 00 eb    	clr.w     w0

000017ca <.L338>:
    17ca:	00 80 fa    	ulnk      
    17cc:	00 00 06    	return    

000017ce <_hopChannelRelease>:
    17ce:	00 00 fa    	lnk       #0x0
    17d0:	7f 18 07    	rcall     0x48d0 <_slowTimerStop>
    17d2:	a0 86 20    	mov.w     #0x86a, w0
    17d4:	21 c0 b3    	mov.b     #0x2, w1
    17d6:	90 cf 10    	subr.b    w1, [w0], [w15]
    17d8:	02 00 32    	bra       Z, 0x17de <.L343>
    17da:	00 40 eb    	clr.b     w0
    17dc:	a7 0a 07    	rcall     0x2d2c <_as3993AntennaPower>

000017de <.L343>:
    17de:	65 48 e2    	cp0.b     0x865
    17e0:	01 00 3a    	bra       NZ, 0x17e4 <.L347>
    17e2:	0a 00 07    	rcall     0x17f8 <_powerDownReader>

000017e4 <.L347>:
    17e4:	00 80 fa    	ulnk      
    17e6:	00 00 06    	return    

000017e8 <_doCyclicInventory>:
    17e8:	00 00 fa    	lnk       #0x0
    17ea:	00 00 eb    	clr.w     w0
    17ec:	65 48 e2    	cp0.b     0x865
    17ee:	02 00 32    	bra       Z, 0x17f4 <.L351>
    17f0:	1d fb 07    	rcall     0xe2c <_callInventoryGen2Internal>
    17f2:	10 00 20    	mov.w     #0x1, w0

000017f4 <.L351>:
    17f4:	00 80 fa    	ulnk      
    17f6:	00 00 06    	return    

000017f8 <_powerDownReader>:
    17f8:	00 00 fa    	lnk       #0x0
    17fa:	6a c8 bf    	mov.b     0x86a, WREG
    17fc:	e1 4f 50    	sub.b     w0, #0x1, [w15]
    17fe:	08 00 32    	bra       Z, 0x1810 <.L356>
    1800:	05 00 39    	bra       NC, 0x180c <.L355>
    1802:	e2 4f 50    	sub.b     w0, #0x2, [w15]
    1804:	07 00 32    	bra       Z, 0x1814 <.L357>
    1806:	e3 4f 50    	sub.b     w0, #0x3, [w15]
    1808:	09 00 3a    	bra       NZ, 0x181c <.L361>
    180a:	06 00 37    	bra       0x1818 <.L358>

0000180c <.L355>:
    180c:	a2 09 07    	rcall     0x2b52 <_as3993EnterPowerDownMode>
    180e:	07 00 37    	bra       0x181e <.L360>

00001810 <.L356>:
    1810:	36 0a 07    	rcall     0x2c7e <_as3993EnterPowerNormalMode>
    1812:	05 00 37    	bra       0x181e <.L360>

00001814 <.L357>:
    1814:	43 0a 07    	rcall     0x2c9c <_as3993EnterPowerNormalRfMode>
    1816:	03 00 37    	bra       0x181e <.L360>

00001818 <.L358>:
    1818:	50 0a 07    	rcall     0x2cba <_as3993EnterPowerStandbyMode>
    181a:	01 00 37    	bra       0x181e <.L360>

0000181c <.L361>:
    181c:	9a 09 07    	rcall     0x2b52 <_as3993EnterPowerDownMode>

0000181e <.L360>:
    181e:	00 80 fa    	ulnk      
    1820:	00 00 06    	return    

00001822 <_powerUpReader>:
    1822:	00 00 fa    	lnk       #0x0
    1824:	6a c8 bf    	mov.b     0x86a, WREG
    1826:	e1 4f 50    	sub.b     w0, #0x1, [w15]
    1828:	08 00 32    	bra       Z, 0x183a <.L365>
    182a:	05 00 39    	bra       NC, 0x1836 <.L364>
    182c:	e2 4f 50    	sub.b     w0, #0x2, [w15]
    182e:	07 00 32    	bra       Z, 0x183e <.L366>
    1830:	e3 4f 50    	sub.b     w0, #0x3, [w15]
    1832:	09 00 3a    	bra       NZ, 0x1846 <.L370>
    1834:	06 00 37    	bra       0x1842 <.L367>

00001836 <.L364>:
    1836:	c9 09 07    	rcall     0x2bca <_as3993ExitPowerDownMode>
    1838:	07 00 37    	bra       0x1848 <.L369>

0000183a <.L365>:
    183a:	2d 0a 07    	rcall     0x2c96 <_as3993ExitPowerNormalMode>
    183c:	05 00 37    	bra       0x1848 <.L369>

0000183e <.L366>:
    183e:	3a 0a 07    	rcall     0x2cb4 <_as3993ExitPowerNormalRfMode>
    1840:	03 00 37    	bra       0x1848 <.L369>

00001842 <.L367>:
    1842:	47 0a 07    	rcall     0x2cd2 <_as3993ExitPowerStandbyMode>
    1844:	01 00 37    	bra       0x1848 <.L369>

00001846 <.L370>:
    1846:	c1 09 07    	rcall     0x2bca <_as3993ExitPowerDownMode>

00001848 <.L369>:
    1848:	00 80 fa    	ulnk      
    184a:	00 00 06    	return    

0000184c <_commands>:
    184c:	00 00 fa    	lnk       #0x0
    184e:	88 1f 78    	mov.w     w8, [w15++]
    1850:	80 42 78    	mov.b     w0, w5
    1852:	03 04 78    	mov.w     w3, w8
    1854:	01 00 e0    	cp0.w     w1
    1856:	21 00 32    	bra       Z, 0x189a <.L372>
    1858:	65 68 ef    	clr.b     0x865
    185a:	ff cf 52    	sub.b     w5, #0x1f, [w15]
    185c:	1e 00 3e    	bra       GTU, 0x189a <.L372>
    185e:	62 43 88    	mov.w     w2, 0x86c
    1860:	71 43 88    	mov.w     w1, 0x86e
    1862:	84 43 88    	mov.w     w4, 0x870
    1864:	13 00 78    	mov.w     [w3], w0
    1866:	90 43 88    	mov.w     w0, 0x872
    1868:	b0 cf b3    	mov.b     #0xfb, w0
    186a:	74 e8 b7    	mov.b     WREG, 0x874
    186c:	05 82 fb    	ze        w5, w4
    186e:	05 40 78    	mov.b     w5, w0
    1870:	62 c0 b3    	mov.b     #0x6, w2
    1872:	04 40 bc    	mul.b     0x4
    1874:	02 80 e8    	inc2.w    w2, w0
    1876:	03 b6 21    	mov.w     #0x1b60, w3
    1878:	60 80 79    	mov.w     [w0+w3], w0
    187a:	80 8f 50    	sub.w     w1, w0, [w15]
    187c:	0e 00 39    	bra       NC, 0x189a <.L372>
    187e:	62 80 79    	mov.w     [w2+w3], w0
    1880:	91 0f 20    	mov.w     #0xf9, w1
    1882:	98 0f 10    	subr.w    w0, [w8], [w15]
    1884:	0b 00 39    	bra       NC, 0x189c <.L378>
    1886:	66 20 b9    	mul.su    w4, #0x6, w0
    1888:	64 00 40    	add.w     w0, #0x4, w0
    188a:	02 b6 21    	mov.w     #0x1b60, w2
    188c:	60 00 79    	mov.w     [w0+w2], w0
    188e:	00 00 01    	call      w0
    1890:	90 43 80    	mov.w     0x872, w0
    1892:	00 0c 78    	mov.w     w0, [w8]
    1894:	74 c8 bf    	mov.b     0x874, WREG
    1896:	80 80 fb    	ze        w0, w1
    1898:	01 00 37    	bra       0x189c <.L378>

0000189a <.L372>:
    189a:	b1 0f 20    	mov.w     #0xfb, w1

0000189c <.L378>:
    189c:	01 00 78    	mov.w     w1, w0
    189e:	4f 04 78    	mov.w     [--w15], w8
    18a0:	00 80 fa    	ulnk      
    18a2:	00 00 06    	return    

000018a4 <_sendTagData>:
    18a4:	00 00 fa    	lnk       #0x0
    18a6:	88 9f be    	mov.d     w8, [w15++]
    18a8:	8a 9f be    	mov.d     w10, [w15++]
    18aa:	8c 9f be    	mov.d     w12, [w15++]
    18ac:	00 02 78    	mov.w     w0, w4
    18ae:	81 04 78    	mov.w     w1, w9
    18b0:	02 04 78    	mov.w     w2, w8
    18b2:	03 06 78    	mov.w     w3, w12
    18b4:	80 01 eb    	clr.w     w3
    18b6:	83 08 78    	mov.w     w3, [w1]
    18b8:	5f 48 e2    	cp0.b     0x85f
    18ba:	c6 00 32    	bra       Z, 0x1a48 <.L381>
    18bc:	ea 0f 56    	sub.w     w12, #0xa, [w15]
    18be:	c4 00 36    	bra       LEU, 0x1a48 <.L381>
    18c0:	50 c0 b3    	mov.b     #0x5, w0
    18c2:	00 4a 78    	mov.b     w0, [w4]
    18c4:	65 c8 bf    	mov.b     0x865, WREG
    18c6:	00 49 78    	mov.b     w0, [w2]
    18c8:	5e 48 e2    	cp0.b     0x85e
    18ca:	20 00 3a    	bra       NZ, 0x190c <.L384>
    18cc:	13 41 98    	mov.b     w3, [w2+1]
    18ce:	23 41 98    	mov.b     w3, [w2+2]
    18d0:	6b c8 bf    	mov.b     0x86b, WREG
    18d2:	30 41 98    	mov.b     w0, [w2+3]
    18d4:	b0 43 80    	mov.w     0x876, w0
    18d6:	42 00 dd    	sl.w      w0, #0x2, w0
    18d8:	00 80 e8    	inc2.w    w0, w0
    18da:	a2 1f 21    	mov.w     #0x11fa, w2
    18dc:	60 40 79    	mov.b     [w0+w2], w0
    18de:	40 44 98    	mov.b     w0, [w8+4]
    18e0:	b0 43 80    	mov.w     0x876, w0
    18e2:	42 00 dd    	sl.w      w0, #0x2, w0
    18e4:	02 00 40    	add.w     w0, w2, w0
    18e6:	a0 00 90    	mov.w     [w0+4], w1
    18e8:	10 00 90    	mov.w     [w0+2], w0
    18ea:	48 0a dd    	sl.w      w1, #0x8, w4
    18ec:	48 00 de    	lsr.w     w0, #0x8, w0
    18ee:	00 00 72    	ior.w     w4, w0, w0
    18f0:	c8 08 de    	lsr.w     w1, #0x8, w1
    18f2:	50 44 98    	mov.b     w0, [w8+5]
    18f4:	b0 43 80    	mov.w     0x876, w0
    18f6:	42 00 dd    	sl.w      w0, #0x2, w0
    18f8:	02 00 40    	add.w     w0, w2, w0
    18fa:	40 40 90    	mov.b     [w0+4], w0
    18fc:	60 44 98    	mov.b     w0, [w8+6]
    18fe:	70 00 20    	mov.w     #0x7, w0
    1900:	80 0c 78    	mov.w     w0, [w9]
    1902:	80 01 fd    	exch      w0, w3
    1904:	5f e8 b7    	mov.b     WREG, 0x85f
    1906:	07 e8 b7    	mov.b     WREG, 0x807
    1908:	80 01 fd    	exch      w0, w3
    190a:	9e 00 37    	bra       0x1a48 <.L381>

0000190c <.L384>:
    190c:	30 00 20    	mov.w     #0x3, w0
    190e:	80 08 78    	mov.w     w0, [w1]
    1910:	82 86 e8    	inc2.w    w2, w13
    1912:	80 4e eb    	clr.b     [w13]
    1914:	73 80 20    	mov.w     #0x807, w3
    1916:	93 41 78    	mov.b     [w3], w3
    1918:	e4 85 20    	mov.w     #0x85e, w4
    191a:	14 42 78    	mov.b     [w4], w4
    191c:	83 4f 52    	sub.b     w4, w3, [w15]
    191e:	88 00 3e    	bra       GTU, 0x1a30 <.L386>
    1920:	83 00 37    	bra       0x1a28 <.L387>

00001922 <.L388>:
    1922:	83 82 fb    	ze        w3, w5
    1924:	60 03 20    	mov.w     #0x36, w0
    1926:	00 a8 b9    	mul.ss    w5, w0, w0
    1928:	40 02 b0    	add.w     #0x24, w0
    192a:	a2 87 20    	mov.w     #0x87a, w2
    192c:	60 40 79    	mov.b     [w0+w2], w0
    192e:	00 80 fb    	ze        w0, w0
    1930:	19 00 40    	add.w     w0, [w9], w0
    1932:	6b 00 40    	add.w     w0, #0xb, w0
    1934:	80 0f 56    	sub.w     w12, w0, [w15]
    1936:	88 00 39    	bra       NC, 0x1a48 <.L381>

00001938 <.L389>:
    1938:	03 40 52    	sub.b     w4, w3, w0
    193a:	00 40 e9    	dec.b     w0, w0
    193c:	10 44 98    	mov.b     w0, [w8+1]
    193e:	9d 4e e8    	inc.b     [w13], [w13]
    1940:	62 03 20    	mov.w     #0x36, w2
    1942:	02 a8 b9    	mul.ss    w5, w2, w0
    1944:	00 03 78    	mov.w     w0, w6
    1946:	45 02 20    	mov.w     #0x24, w5
    1948:	80 82 42    	add.w     w5, w0, w5
    194a:	aa 87 20    	mov.w     #0x87a, w10
    194c:	65 40 7d    	mov.b     [w5+w10], w0
    194e:	00 80 fb    	ze        w0, w0
    1950:	19 00 40    	add.w     w0, [w9], w0
    1952:	e8 0c 40    	add.w     w0, #0x8, [w9]
    1954:	80 02 20    	mov.w     #0x28, w0
    1956:	06 00 40    	add.w     w0, w6, w0
    1958:	60 40 7d    	mov.b     [w0+w10], w0
    195a:	80 75 7c    	mov.b     w0, [w11+w8]
    195c:	0b 00 44    	add.w     w8, w11, w0
    195e:	61 02 20    	mov.w     #0x26, w1
    1960:	86 80 40    	add.w     w1, w6, w1
    1962:	b4 87 20    	mov.w     #0x87b, w4
    1964:	e1 40 7a    	mov.b     [w1+w4], w1
    1966:	11 40 98    	mov.b     w1, [w0+1]
    1968:	b1 43 80    	mov.w     0x876, w1
    196a:	c2 08 dd    	sl.w      w1, #0x2, w1
    196c:	81 80 e8    	inc2.w    w1, w1
    196e:	a4 1f 21    	mov.w     #0x11fa, w4
    1970:	e1 40 7a    	mov.b     [w1+w4], w1
    1972:	21 40 98    	mov.b     w1, [w0+2]
    1974:	b1 43 80    	mov.w     0x876, w1
    1976:	c2 08 dd    	sl.w      w1, #0x2, w1
    1978:	84 80 40    	add.w     w1, w4, w1
    197a:	11 01 90    	mov.w     [w1+2], w2
    197c:	a1 01 90    	mov.w     [w1+4], w3
    197e:	c8 18 dd    	sl.w      w3, #0x8, w1
    1980:	48 11 de    	lsr.w     w2, #0x8, w2
    1982:	02 81 70    	ior.w     w1, w2, w2
    1984:	c8 19 de    	lsr.w     w3, #0x8, w3
    1986:	32 40 98    	mov.b     w2, [w0+3]
    1988:	b1 43 80    	mov.w     0x876, w1
    198a:	c2 08 dd    	sl.w      w1, #0x2, w1
    198c:	84 80 40    	add.w     w1, w4, w1
    198e:	c1 40 90    	mov.b     [w1+4], w1
    1990:	41 40 98    	mov.b     w1, [w0+4]
    1992:	e5 40 7d    	mov.b     [w5+w10], w1
    1994:	81 c0 e8    	inc2.b    w1, w1
    1996:	51 40 98    	mov.b     w1, [w0+5]
    1998:	86 80 e8    	inc2.w    w6, w1
    199a:	e1 40 7d    	mov.b     [w1+w10], w1
    199c:	61 40 98    	mov.b     w1, [w0+6]
    199e:	e3 00 43    	add.w     w6, #0x3, w1
    19a0:	e1 40 7d    	mov.b     [w1+w10], w1
    19a2:	71 40 98    	mov.b     w1, [w0+7]
    19a4:	68 00 40    	add.w     w0, #0x8, w0
    19a6:	65 41 7d    	mov.b     [w5+w10], w2
    19a8:	02 81 fb    	ze        w2, w2
    19aa:	e4 00 43    	add.w     w6, #0x4, w1
    19ac:	8a 80 40    	add.w     w1, w10, w1
    19ae:	78 f6 07    	rcall     0x6a0 <_memcpy>
    19b0:	68 48 e2    	cp0.b     0x868
    19b2:	28 00 32    	bra       Z, 0x1a04 <.L390>
    19b4:	07 c8 bf    	mov.b     0x807, WREG
    19b6:	00 80 fb    	ze        w0, w0
    19b8:	62 03 20    	mov.w     #0x36, w2
    19ba:	02 80 b9    	mul.ss    w0, w2, w0
    19bc:	80 01 78    	mov.w     w0, w3
    19be:	41 02 20    	mov.w     #0x24, w1
    19c0:	80 80 40    	add.w     w1, w0, w1
    19c2:	61 40 7d    	mov.b     [w1+w10], w0
    19c4:	00 80 fb    	ze        w0, w0
    19c6:	00 80 45    	add.w     w11, w0, w0
    19c8:	08 00 40    	add.w     w0, w8, w0
    19ca:	82 02 20    	mov.w     #0x28, w2
    19cc:	03 01 41    	add.w     w2, w3, w2
    19ce:	b4 87 20    	mov.w     #0x87b, w4
    19d0:	62 42 7a    	mov.b     [w2+w4], w4
    19d2:	04 48 98    	mov.b     w4, [w0+8]
    19d4:	61 40 7d    	mov.b     [w1+w10], w0
    19d6:	00 80 fb    	ze        w0, w0
    19d8:	00 80 45    	add.w     w11, w0, w0
    19da:	00 00 44    	add.w     w8, w0, w0
    19dc:	69 00 40    	add.w     w0, #0x9, w0
    19de:	b1 87 20    	mov.w     #0x87b, w1
    19e0:	62 c1 78    	mov.b     [w2+w1], w2
    19e2:	02 81 fb    	ze        w2, w2
    19e4:	a1 02 20    	mov.w     #0x2a, w1
    19e6:	83 80 40    	add.w     w1, w3, w1
    19e8:	8a 80 40    	add.w     w1, w10, w1
    19ea:	5a f6 07    	rcall     0x6a0 <_memcpy>
    19ec:	07 c8 bf    	mov.b     0x807, WREG
    19ee:	00 80 fb    	ze        w0, w0
    19f0:	62 03 20    	mov.w     #0x36, w2
    19f2:	02 80 b9    	mul.ss    w0, w2, w0
    19f4:	80 02 b0    	add.w     #0x28, w0
    19f6:	b4 87 20    	mov.w     #0x87b, w4
    19f8:	60 40 7a    	mov.b     [w0+w4], w0
    19fa:	00 80 fb    	ze        w0, w0
    19fc:	80 80 45    	add.w     w11, w0, w1
    19fe:	81 05 e8    	inc.w     w1, w11
    1a00:	19 00 40    	add.w     w0, [w9], w0
    1a02:	80 0c e8    	inc.w     w0, [w9]

00001a04 <.L390>:
    1a04:	73 80 20    	mov.w     #0x807, w3
    1a06:	93 41 78    	mov.b     [w3], w3
    1a08:	03 80 fb    	ze        w3, w0
    1a0a:	62 03 20    	mov.w     #0x36, w2
    1a0c:	02 80 b9    	mul.ss    w0, w2, w0
    1a0e:	40 02 b0    	add.w     #0x24, w0
    1a10:	a2 87 20    	mov.w     #0x87a, w2
    1a12:	60 40 79    	mov.b     [w0+w2], w0
    1a14:	00 80 fb    	ze        w0, w0
    1a16:	00 80 45    	add.w     w11, w0, w0
    1a18:	e8 05 40    	add.w     w0, #0x8, w11
    1a1a:	83 41 e8    	inc.b     w3, w3
    1a1c:	03 00 78    	mov.w     w3, w0
    1a1e:	07 e8 b7    	mov.b     WREG, 0x807
    1a20:	e4 85 20    	mov.w     #0x85e, w4
    1a22:	14 42 78    	mov.b     [w4], w4
    1a24:	84 cf 51    	sub.b     w3, w4, [w15]
    1a26:	7d ff 39    	bra       NC, 0x1922 <.L388>

00001a28 <.L387>:
    1a28:	00 40 eb    	clr.b     w0
    1a2a:	5f e8 b7    	mov.b     WREG, 0x85f
    1a2c:	07 e8 b7    	mov.b     WREG, 0x807
    1a2e:	0c 00 37    	bra       0x1a48 <.L381>

00001a30 <.L386>:
    1a30:	83 82 fb    	ze        w3, w5
    1a32:	60 03 20    	mov.w     #0x36, w0
    1a34:	00 a8 b9    	mul.ss    w5, w0, w0
    1a36:	40 02 b0    	add.w     #0x24, w0
    1a38:	a2 87 20    	mov.w     #0x87a, w2
    1a3a:	60 40 79    	mov.b     [w0+w2], w0
    1a3c:	00 80 fb    	ze        w0, w0
    1a3e:	19 00 40    	add.w     w0, [w9], w0
    1a40:	6b 00 40    	add.w     w0, #0xb, w0
    1a42:	3b 00 20    	mov.w     #0x3, w11
    1a44:	80 0f 56    	sub.w     w12, w0, [w15]
    1a46:	78 ff 31    	bra       C, 0x1938 <.L389>

00001a48 <.L381>:
    1a48:	00 00 eb    	clr.w     w0
    1a4a:	4f 06 be    	mov.d     [--w15], w12
    1a4c:	4f 05 be    	mov.d     [--w15], w10
    1a4e:	4f 04 be    	mov.d     [--w15], w8
    1a50:	00 80 fa    	ulnk      
    1a52:	00 00 06    	return    

00001a54 <_callConfigPA>:
    1a54:	00 00 fa    	lnk       #0x0
    1a56:	90 cf b3    	mov.b     #0xf9, w0
    1a58:	74 e8 b7    	mov.b     WREG, 0x874
    1a5a:	00 80 fa    	ulnk      
    1a5c:	00 00 06    	return    

00001a5e <_gen2ReadTID>:
    1a5e:	00 00 fa    	lnk       #0x0
    1a60:	88 9f be    	mov.d     w8, [w15++]
    1a62:	8a 9f be    	mov.d     w10, [w15++]
    1a64:	00 04 78    	mov.w     w0, w8
    1a66:	00 40 eb    	clr.b     w0
    1a68:	10 6c 98    	mov.b     w0, [w8+41]
    1a6a:	a9 02 20    	mov.w     #0x2a, w9
    1a6c:	88 84 44    	add.w     w9, w8, w9
    1a6e:	89 02 78    	mov.w     w9, w5
    1a70:	44 c0 b3    	mov.b     #0x4, w4
    1a72:	60 11 b8    	mul.uu    w2, #0x0, w2
    1a74:	21 c0 b3    	mov.b     #0x2, w1
    1a76:	08 00 78    	mov.w     w8, w0
    1a78:	b6 03 07    	rcall     0x21e6 <_gen2ReadFromTag>
    1a7a:	00 42 78    	mov.b     w0, w4
    1a7c:	00 04 e0    	cp0.b     w0
    1a7e:	26 00 3a    	bra       NZ, 0x1acc <.L397>
    1a80:	80 c0 b3    	mov.b     #0x8, w0
    1a82:	10 6c 98    	mov.b     w0, [w8+41]
    1a84:	e8 84 44    	add.w     w9, #0x8, w9
    1a86:	4a 00 20    	mov.w     #0x4, w10
    1a88:	0b 00 20    	mov.w     #0x0, w11

00001a8a <.L399>:
    1a8a:	89 02 78    	mov.w     w9, w5
    1a8c:	14 c0 b3    	mov.b     #0x1, w4
    1a8e:	0a 01 be    	mov.d     w10, w2
    1a90:	21 c0 b3    	mov.b     #0x2, w1
    1a92:	08 00 78    	mov.w     w8, w0
    1a94:	a8 03 07    	rcall     0x21e6 <_gen2ReadFromTag>
    1a96:	00 42 78    	mov.b     w0, w4
    1a98:	00 04 e0    	cp0.b     w0
    1a9a:	0a 00 3a    	bra       NZ, 0x1ab0 <.L400>
    1a9c:	61 05 45    	add.w     w10, #0x1, w10
    1a9e:	e0 85 4d    	addc.w    w11, #0x0, w11
    1aa0:	18 68 90    	mov.b     [w8+41], w0
    1aa2:	00 c0 e8    	inc2.b    w0, w0
    1aa4:	10 6c 98    	mov.b     w0, [w8+41]
    1aa6:	89 84 e8    	inc2.w    w9, w9
    1aa8:	e6 0f 55    	sub.w     w10, #0x6, [w15]
    1aaa:	e0 8f 5d    	subb.w    w11, #0x0, [w15]
    1aac:	3e 00 32    	bra       Z, 0x1b2a <.L402>
    1aae:	ed ff 37    	bra       0x1a8a <.L399>

00001ab0 <.L400>:
    1ab0:	e0 cd b3    	mov.b     #0xde, w0
    1ab2:	80 4f 52    	sub.b     w4, w0, [w15]
    1ab4:	06 00 3a    	bra       NZ, 0x1ac2 <.L403>
    1ab6:	0a 00 45    	add.w     w10, w10, w0
    1ab8:	8b 80 4d    	addc.w    w11, w11, w1
    1aba:	a0 02 b0    	add.w     #0x2a, w0
    1abc:	60 40 7c    	mov.b     [w0+w8], w0
    1abe:	e3 4f 50    	sub.b     w0, #0x3, [w15]
    1ac0:	32 00 32    	bra       Z, 0x1b26 <.L405>

00001ac2 <.L403>:
    1ac2:	10 c0 b3    	mov.b     #0x1, w0
    1ac4:	10 6c 98    	mov.b     w0, [w8+41]
    1ac6:	d0 cf b3    	mov.b     #0xfd, w0
    1ac8:	20 6c 98    	mov.b     w0, [w8+42]
    1aca:	30 00 37    	bra       0x1b2c <.L406>

00001acc <.L397>:
    1acc:	e0 cd b3    	mov.b     #0xde, w0
    1ace:	80 4f 52    	sub.b     w4, w0, [w15]
    1ad0:	25 00 3a    	bra       NZ, 0x1b1c <.L407>
    1ad2:	28 68 90    	mov.b     [w8+42], w0
    1ad4:	e3 4f 50    	sub.b     w0, #0x3, [w15]
    1ad6:	22 00 3a    	bra       NZ, 0x1b1c <.L407>
    1ad8:	60 55 b8    	mul.uu    w10, #0x0, w10

00001ada <.L410>:
    1ada:	89 02 78    	mov.w     w9, w5
    1adc:	14 c0 b3    	mov.b     #0x1, w4
    1ade:	0a 01 be    	mov.d     w10, w2
    1ae0:	21 c0 b3    	mov.b     #0x2, w1
    1ae2:	08 00 78    	mov.w     w8, w0
    1ae4:	80 03 07    	rcall     0x21e6 <_gen2ReadFromTag>
    1ae6:	00 42 78    	mov.b     w0, w4
    1ae8:	00 04 e0    	cp0.b     w0
    1aea:	0a 00 3a    	bra       NZ, 0x1b00 <.L411>
    1aec:	61 05 45    	add.w     w10, #0x1, w10
    1aee:	e0 85 4d    	addc.w    w11, #0x0, w11
    1af0:	18 68 90    	mov.b     [w8+41], w0
    1af2:	00 c0 e8    	inc2.b    w0, w0
    1af4:	10 6c 98    	mov.b     w0, [w8+41]
    1af6:	89 84 e8    	inc2.w    w9, w9
    1af8:	e6 0f 55    	sub.w     w10, #0x6, [w15]
    1afa:	e0 8f 5d    	subb.w    w11, #0x0, [w15]
    1afc:	16 00 32    	bra       Z, 0x1b2a <.L402>
    1afe:	ed ff 37    	bra       0x1ada <.L410>

00001b00 <.L411>:
    1b00:	e0 cd b3    	mov.b     #0xde, w0
    1b02:	80 4f 52    	sub.b     w4, w0, [w15]
    1b04:	06 00 3a    	bra       NZ, 0x1b12 <.L413>
    1b06:	0a 00 45    	add.w     w10, w10, w0
    1b08:	8b 80 4d    	addc.w    w11, w11, w1
    1b0a:	a0 02 b0    	add.w     #0x2a, w0
    1b0c:	60 40 7c    	mov.b     [w0+w8], w0
    1b0e:	e3 4f 50    	sub.b     w0, #0x3, [w15]
    1b10:	0a 00 32    	bra       Z, 0x1b26 <.L405>

00001b12 <.L413>:
    1b12:	10 c0 b3    	mov.b     #0x1, w0
    1b14:	10 6c 98    	mov.b     w0, [w8+41]
    1b16:	e0 cf b3    	mov.b     #0xfe, w0
    1b18:	20 6c 98    	mov.b     w0, [w8+42]
    1b1a:	08 00 37    	bra       0x1b2c <.L406>

00001b1c <.L407>:
    1b1c:	10 c0 b3    	mov.b     #0x1, w0
    1b1e:	10 6c 98    	mov.b     w0, [w8+41]
    1b20:	00 c0 eb    	setm.b    w0
    1b22:	20 6c 98    	mov.b     w0, [w8+42]
    1b24:	03 00 37    	bra       0x1b2c <.L406>

00001b26 <.L405>:
    1b26:	e4 cd b3    	mov.b     #0xde, w4
    1b28:	01 00 37    	bra       0x1b2c <.L406>

00001b2a <.L402>:
    1b2a:	00 42 eb    	clr.b     w4

00001b2c <.L406>:
    1b2c:	04 00 fb    	se        w4, w0
    1b2e:	4f 05 be    	mov.d     [--w15], w10
    1b30:	4f 04 be    	mov.d     [--w15], w8
    1b32:	00 80 fa    	ulnk      
    1b34:	00 00 06    	return    

00001b36 <_gen2InsertEBV>:
    1b36:	06 00 fa    	lnk       #0x6
    1b38:	88 9f be    	mov.d     w8, [w15++]
    1b3a:	82 04 78    	mov.w     w2, w9
    1b3c:	03 44 78    	mov.b     w3, w8
    1b3e:	e5 01 47    	add.w     w14, #0x5, w3
    1b40:	0e 01 78    	mov.w     w14, w2
    1b42:	52 12 07    	rcall     0x3fe8 <_u32ToEbv>
    1b44:	5e 41 90    	mov.b     [w14+5], w2
    1b46:	88 41 78    	mov.b     w8, w3
    1b48:	8e 00 78    	mov.w     w14, w1
    1b4a:	09 00 78    	mov.w     w9, w0
    1b4c:	6d 12 07    	rcall     0x4028 <_insertBitStream>
    1b4e:	5e 40 90    	mov.b     [w14+5], w0
    1b50:	00 80 fb    	ze        w0, w0
    1b52:	4f 04 be    	mov.d     [--w15], w8
    1b54:	00 80 fa    	ulnk      
    1b56:	00 00 06    	return    

00001b58 <_gen2GetAgcRssi>:
    1b58:	02 00 fa    	lnk       #0x2
    1b5a:	88 9f be    	mov.d     w8, [w15++]
    1b5c:	00 04 be    	mov.d     w0, w8
    1b5e:	0e 01 78    	mov.w     w14, w2
    1b60:	21 c0 b3    	mov.b     #0x2, w1
    1b62:	a0 c2 b3    	mov.b     #0x2a, w0
    1b64:	78 06 07    	rcall     0x2856 <_as3993ContinuousRead>
    1b66:	1e 4c 78    	mov.b     [w14], [w8]
    1b68:	1e 40 90    	mov.b     [w14+1], w0
    1b6a:	80 4c 78    	mov.b     w0, [w9]
    1b6c:	4f 04 be    	mov.d     [--w15], w8
    1b6e:	00 80 fa    	ulnk      
    1b70:	00 00 06    	return    

00001b72 <_gen2Select>:
    1b72:	04 00 fa    	lnk       #0x4
    1b74:	88 9f be    	mov.d     w8, [w15++]
    1b76:	8a 9f be    	mov.d     w10, [w15++]
    1b78:	00 05 78    	mov.w     w0, w10
    1b7a:	00 68 90    	mov.b     [w0+40], w0
    1b7c:	80 85 fb    	ze        w0, w11
    1b7e:	10 00 20    	mov.w     #0x1, w0
    1b80:	00 0f 78    	mov.w     w0, [w14]
    1b82:	e3 04 45    	add.w     w10, #0x3, w9
    1b84:	80 00 eb    	clr.w     w1
    1b86:	91 ef 88    	mov.w     w1, 0x1df2
    1b88:	48 d6 21    	mov.w     #0x1d64, w8
    1b8a:	c2 02 20    	mov.w     #0x2c, w2
    1b8c:	08 00 78    	mov.w     w8, w0
    1b8e:	a3 f5 07    	rcall     0x6d6
    1b90:	9a 40 d0    	sl.b      [w10], w1
    1b92:	ee c0 60    	and.b     w1, #0xe, w1
    1b94:	1a 40 90    	mov.b     [w10+1], w0
    1b96:	42 00 de    	lsr.w     w0, #0x2, w0
    1b98:	61 00 60    	and.w     w0, #0x1, w0
    1b9a:	80 c0 70    	ior.b     w1, w0, w1
    1b9c:	00 ca b3    	mov.b     #0xa0, w0
    1b9e:	80 c0 70    	ior.b     w1, w0, w1
    1ba0:	01 00 78    	mov.w     w1, w0
    1ba2:	64 fd b7    	mov.b     WREG, 0x1d64
    1ba4:	9a 40 90    	mov.b     [w10+1], w1
    1ba6:	c6 08 dd    	sl.w      w1, #0x6, w1
    1ba8:	2a 40 90    	mov.b     [w10+2], w0
    1baa:	44 00 dd    	sl.w      w0, #0x4, w0
    1bac:	00 43 b2    	and.b     #0x30, w0
    1bae:	80 c0 70    	ior.b     w1, w0, w1
    1bb0:	01 00 78    	mov.w     w1, w0
    1bb2:	65 fd b7    	mov.b     WREG, 0x1d65
    1bb4:	2a 10 90    	mov.w     [w10+36], w0
    1bb6:	ba 10 90    	mov.w     [w10+38], w1
    1bb8:	43 c0 b3    	mov.b     #0x4, w3
    1bba:	52 d6 21    	mov.w     #0x1d65, w2
    1bbc:	bc ff 07    	rcall     0x1b36 <_gen2InsertEBV>
    1bbe:	80 83 fb    	ze        w0, w7
    1bc0:	07 01 e8    	inc.w     w7, w2
    1bc2:	8a 68 90    	mov.b     [w10+40], w1
    1bc4:	81 80 fb    	ze        w1, w1
    1bc6:	c4 08 de    	lsr.w     w1, #0x4, w1
    1bc8:	01 71 7c    	mov.b     w1, [w2+w8]
    1bca:	07 81 e8    	inc2.w    w7, w2
    1bcc:	8a 68 90    	mov.b     [w10+40], w1
    1bce:	c4 08 dd    	sl.w      w1, #0x4, w1
    1bd0:	01 71 7c    	mov.b     w1, [w2+w8]
    1bd2:	80 c1 e8    	inc2.b    w0, w3
    1bd4:	0b 43 78    	mov.b     w11, w6
    1bd6:	e7 cf 55    	sub.b     w11, #0x7, [w15]
    1bd8:	11 00 36    	bra       LEU, 0x1bfc <.L6>
    1bda:	08 02 78    	mov.w     w8, w4
    1bdc:	05 cf b3    	mov.b     #0xf0, w5

00001bde <.L7>:
    1bde:	03 81 fb    	ze        w3, w2
    1be0:	19 80 fb    	ze        [w9], w0
    1be2:	44 00 de    	lsr.w     w0, #0x4, w0
    1be4:	e2 40 7a    	mov.b     [w2+w4], w1
    1be6:	01 40 70    	ior.b     w0, w1, w0
    1be8:	00 71 7a    	mov.b     w0, [w2+w4]
    1bea:	83 41 e8    	inc.b     w3, w3
    1bec:	83 80 fb    	ze        w3, w1
    1bee:	39 80 fb    	ze        [w9++], w0
    1bf0:	44 00 dd    	sl.w      w0, #0x4, w0
    1bf2:	05 40 60    	and.b     w0, w5, w0
    1bf4:	80 70 7a    	mov.b     w0, [w1+w4]
    1bf6:	68 43 53    	sub.b     w6, #0x8, w6
    1bf8:	e7 4f 53    	sub.b     w6, #0x7, [w15]
    1bfa:	f1 ff 3e    	bra       GTU, 0x1bde <.L7>

00001bfc <.L6>:
    1bfc:	06 04 e0    	cp0.b     w6
    1bfe:	09 00 3a    	bra       NZ, 0x1c12 <.L8>
    1c00:	83 81 fb    	ze        w3, w3
    1c02:	42 d6 21    	mov.w     #0x1d64, w2
    1c04:	1a 68 90    	mov.b     [w10+41], w0
    1c06:	43 00 dd    	sl.w      w0, #0x3, w0
    1c08:	68 40 60    	and.b     w0, #0x8, w0
    1c0a:	e3 40 79    	mov.b     [w3+w2], w1
    1c0c:	01 40 70    	ior.b     w0, w1, w0
    1c0e:	80 71 79    	mov.b     w0, [w3+w2]
    1c10:	21 00 37    	bra       0x1c54 <.L10>

00001c12 <.L8>:
    1c12:	06 83 fb    	ze        w6, w6
    1c14:	68 00 13    	subr.w    w6, #0x8, w0
    1c16:	f2 0f 20    	mov.w     #0xff, w2
    1c18:	00 11 dd    	sl.w      w2, w0, w2
    1c1a:	03 82 fb    	ze        w3, w4
    1c1c:	43 d6 21    	mov.w     #0x1d64, w3
    1c1e:	02 81 fb    	ze        w2, w2
    1c20:	c4 10 de    	lsr.w     w2, #0x4, w1
    1c22:	19 80 fb    	ze        [w9], w0
    1c24:	44 00 de    	lsr.w     w0, #0x4, w0
    1c26:	80 c0 60    	and.b     w1, w0, w1
    1c28:	64 c0 79    	mov.b     [w4+w3], w0
    1c2a:	80 c0 70    	ior.b     w1, w0, w1
    1c2c:	01 f2 79    	mov.b     w1, [w4+w3]
    1c2e:	84 02 e8    	inc.w     w4, w5
    1c30:	44 11 dd    	sl.w      w2, #0x4, w2
    1c32:	19 80 fb    	ze        [w9], w0
    1c34:	44 00 dd    	sl.w      w0, #0x4, w0
    1c36:	00 41 61    	and.b     w2, w0, w2
    1c38:	82 f2 79    	mov.b     w2, [w5+w3]
    1c3a:	9a 68 90    	mov.b     [w10+41], w1
    1c3c:	e1 80 60    	and.w     w1, #0x1, w1
    1c3e:	67 03 13    	subr.w    w6, #0x7, w6
    1c40:	86 08 dd    	sl.w      w1, w6, w1
    1c42:	81 80 fb    	ze        w1, w1
    1c44:	44 09 de    	lsr.w     w1, #0x4, w2
    1c46:	64 c0 79    	mov.b     [w4+w3], w0
    1c48:	02 40 70    	ior.b     w0, w2, w0
    1c4a:	00 f2 79    	mov.b     w0, [w4+w3]
    1c4c:	c4 08 dd    	sl.w      w1, #0x4, w1
    1c4e:	65 c0 79    	mov.b     [w5+w3], w0
    1c50:	01 40 70    	ior.b     w0, w1, w0
    1c52:	80 f2 79    	mov.b     w0, [w5+w3]

00001c54 <.L10>:
    1c54:	43 39 dd    	sl.w      w7, #0x3, w2
    1c56:	02 81 45    	add.w     w11, w2, w2
    1c58:	75 01 41    	add.w     w2, #0x15, w2
    1c5a:	17 c0 b3    	mov.b     #0x1, w7
    1c5c:	00 43 eb    	clr.b     w6
    1c5e:	87 42 78    	mov.b     w7, w5
    1c60:	0e 02 78    	mov.w     w14, w4
    1c62:	8e 81 e8    	inc2.w    w14, w3
    1c64:	41 d6 21    	mov.w     #0x1d64, w1
    1c66:	00 c9 b3    	mov.b     #0x90, w0
    1c68:	82 09 07    	rcall     0x2f6e <_as3993TxRxGen2Bytes>
    1c6a:	4f 05 be    	mov.d     [--w15], w10
    1c6c:	4f 04 be    	mov.d     [--w15], w8
    1c6e:	00 80 fa    	ulnk      
    1c70:	00 00 06    	return    

00001c72 <_gen2PrepareQueryCmd>:
    1c72:	00 00 fa    	lnk       #0x0
    1c74:	73 d9 21    	mov.w     #0x1d97, w3
    1c76:	93 41 78    	mov.b     [w3], w3
    1c78:	c5 19 dd    	sl.w      w3, #0x5, w3
    1c7a:	03 42 b2    	and.b     #0x20, w3
    1c7c:	22 d9 21    	mov.w     #0x1d92, w2
    1c7e:	12 41 78    	mov.b     [w2], w2
    1c80:	43 11 dd    	sl.w      w2, #0x3, w2
    1c82:	78 41 61    	and.b     w2, #0x18, w2
    1c84:	82 c1 71    	ior.b     w3, w2, w3
    1c86:	32 d9 21    	mov.w     #0x1d93, w2
    1c88:	12 41 78    	mov.b     [w2], w2
    1c8a:	42 11 dd    	sl.w      w2, #0x2, w2
    1c8c:	64 41 61    	and.b     w2, #0x4, w2
    1c8e:	82 c1 71    	ior.b     w3, w2, w3
    1c90:	42 d9 21    	mov.w     #0x1d94, w2
    1c92:	12 41 78    	mov.b     [w2], w2
    1c94:	63 41 61    	and.b     w2, #0x3, w2
    1c96:	02 c8 71    	ior.b     w3, w2, [w0]
    1c98:	53 d9 21    	mov.w     #0x1d95, w3
    1c9a:	93 41 78    	mov.b     [w3], w3
    1c9c:	c6 19 dd    	sl.w      w3, #0x6, w3
    1c9e:	62 d9 21    	mov.w     #0x1d96, w2
    1ca0:	12 41 78    	mov.b     [w2], w2
    1ca2:	45 11 dd    	sl.w      w2, #0x5, w2
    1ca4:	02 42 b2    	and.b     #0x20, w2
    1ca6:	82 c1 71    	ior.b     w3, w2, w3
    1ca8:	81 c0 40    	add.b     w1, w1, w1
    1caa:	fe c0 60    	and.b     w1, #0x1e, w1
    1cac:	81 c1 71    	ior.b     w3, w1, w3
    1cae:	13 40 98    	mov.b     w3, [w0+1]
    1cb0:	00 80 fa    	ulnk      
    1cb2:	00 00 06    	return    

00001cb4 <_gen2QueryMeasureRSSI>:
    1cb4:	04 00 fa    	lnk       #0x4
    1cb6:	88 9f be    	mov.d     w8, [w15++]
    1cb8:	8a 9f be    	mov.d     w10, [w15++]
    1cba:	8c 9f be    	mov.d     w12, [w15++]
    1cbc:	80 05 78    	mov.w     w0, w11
    1cbe:	01 05 78    	mov.w     w1, w10
    1cc0:	02 06 be    	mov.d     w2, w12
    1cc2:	00 c1 b3    	mov.b     #0x10, w0
    1cc4:	e1 05 07    	rcall     0x2888 <_as3993SingleRead>
    1cc6:	80 44 78    	mov.b     w0, w9
    1cc8:	80 40 eb    	clr.b     w1
    1cca:	40 d6 21    	mov.w     #0x1d64, w0
    1ccc:	d2 ff 07    	rcall     0x1c72 <_gen2PrepareQueryCmd>
    1cce:	02 01 20    	mov.w     #0x10, w2
    1cd0:	02 0f 78    	mov.w     w2, [w14]
    1cd2:	17 c0 b3    	mov.b     #0x1, w7
    1cd4:	00 43 eb    	clr.b     w6
    1cd6:	85 d9 21    	mov.w     #0x1d98, w5
    1cd8:	95 42 78    	mov.b     [w5], w5
    1cda:	0e 02 78    	mov.w     w14, w4
    1cdc:	80 01 eb    	clr.w     w3
    1cde:	41 d6 21    	mov.w     #0x1d64, w1
    1ce0:	80 c9 b3    	mov.b     #0x98, w0
    1ce2:	45 09 07    	rcall     0x2f6e <_as3993TxRxGen2Bytes>
    1ce4:	48 06 20    	mov.w     #0x64, w8
    1ce6:	00 04 e0    	cp0.b     w0
    1ce8:	06 00 32    	bra       Z, 0x1cf6 <.L18>
    1cea:	00 00 fb    	se        w0, w0
    1cec:	25 00 37    	bra       0x1d38 <.L19>

00001cee <.L20>:
    1cee:	90 c3 b3    	mov.b     #0x39, w0
    1cf0:	cb 05 07    	rcall     0x2888 <_as3993SingleRead>
    1cf2:	00 68 a3    	btst.z    w0, #0x6
    1cf4:	03 00 3a    	bra       NZ, 0x1cfc <.L21>

00001cf6 <.L18>:
    1cf6:	08 04 e9    	dec.w     w8, w8
    1cf8:	e1 0f 44    	add.w     w8, #0x1, [w15]
    1cfa:	f9 ff 3a    	bra       NZ, 0x1cee <.L20>

00001cfc <.L21>:
    1cfc:	8a 00 78    	mov.w     w10, w1
    1cfe:	0b 00 78    	mov.w     w11, w0
    1d00:	2b ff 07    	rcall     0x1b58 <_gen2GetAgcRssi>
    1d02:	00 cf b3    	mov.b     #0xf0, w0
    1d04:	00 c4 64    	and.b     w9, w0, w8
    1d06:	88 40 78    	mov.b     w8, w1
    1d08:	b1 40 b3    	ior.b     #0xb, w1
    1d0a:	00 c1 b3    	mov.b     #0x10, w0
    1d0c:	f3 05 07    	rcall     0x28f4 <_as3993SingleWrite>
    1d0e:	b7 08 07    	rcall     0x2e7e <_as3993GetADC>
    1d10:	00 4e 78    	mov.b     w0, [w12]
    1d12:	88 40 78    	mov.b     w8, w1
    1d14:	c1 40 b3    	ior.b     #0xc, w1
    1d16:	00 c1 b3    	mov.b     #0x10, w0
    1d18:	ed 05 07    	rcall     0x28f4 <_as3993SingleWrite>
    1d1a:	b1 08 07    	rcall     0x2e7e <_as3993GetADC>
    1d1c:	80 4e 78    	mov.b     w0, [w13]
    1d1e:	8e 01 78    	mov.w     w14, w3
    1d20:	00 01 20    	mov.w     #0x10, w0
    1d22:	80 19 78    	mov.w     w0, [w3++]
    1d24:	80 43 eb    	clr.b     w7
    1d26:	07 43 78    	mov.b     w7, w6
    1d28:	85 d9 21    	mov.w     #0x1d98, w5
    1d2a:	95 42 78    	mov.b     [w5], w5
    1d2c:	0e 02 78    	mov.w     w14, w4
    1d2e:	00 01 eb    	clr.w     w2
    1d30:	80 00 eb    	clr.w     w1
    1d32:	07 40 78    	mov.b     w7, w0
    1d34:	1c 09 07    	rcall     0x2f6e <_as3993TxRxGen2Bytes>
    1d36:	00 00 fb    	se        w0, w0

00001d38 <.L19>:
    1d38:	4f 06 be    	mov.d     [--w15], w12
    1d3a:	4f 05 be    	mov.d     [--w15], w10
    1d3c:	4f 04 be    	mov.d     [--w15], w8
    1d3e:	00 80 fa    	ulnk      
    1d40:	00 00 06    	return    

00001d42 <_gen2Slot>:
    1d42:	02 00 fa    	lnk       #0x2
    1d44:	88 9f be    	mov.d     w8, [w15++]
    1d46:	8a 9f be    	mov.d     w10, [w15++]
    1d48:	8c 1f 78    	mov.w     w12, [w15++]
    1d4a:	00 05 78    	mov.w     w0, w10
    1d4c:	01 44 78    	mov.b     w1, w8
    1d4e:	83 05 78    	mov.w     w3, w11
    1d50:	04 46 78    	mov.b     w4, w12
    1d52:	09 01 20    	mov.w     #0x10, w9
    1d54:	09 0f 78    	mov.w     w9, [w14]
    1d56:	01 04 e0    	cp0.b     w1
    1d58:	12 00 32    	bra       Z, 0x1d7e <.L25>
    1d5a:	80 c9 b3    	mov.b     #0x98, w0
    1d5c:	80 cf 50    	sub.b     w1, w0, [w15]
    1d5e:	1b 00 3a    	bra       NZ, 0x1d96 <.L24>
    1d60:	82 40 78    	mov.b     w2, w1
    1d62:	40 d6 21    	mov.w     #0x1d64, w0
    1d64:	86 ff 07    	rcall     0x1c72 <_gen2PrepareQueryCmd>
    1d66:	17 c0 b3    	mov.b     #0x1, w7
    1d68:	d6 c9 b3    	mov.b     #0x9d, w6
    1d6a:	85 d9 21    	mov.w     #0x1d98, w5
    1d6c:	95 42 78    	mov.b     [w5], w5
    1d6e:	0e 02 78    	mov.w     w14, w4
    1d70:	8a 01 78    	mov.w     w10, w3
    1d72:	09 01 78    	mov.w     w9, w2
    1d74:	41 d6 21    	mov.w     #0x1d64, w1
    1d76:	08 40 78    	mov.b     w8, w0
    1d78:	fa 08 07    	rcall     0x2f6e <_as3993TxRxGen2Bytes>
    1d7a:	80 40 78    	mov.b     w0, w1
    1d7c:	17 00 37    	bra       0x1dac <.L27>

00001d7e <.L25>:
    1d7e:	17 c0 b3    	mov.b     #0x1, w7
    1d80:	d6 c9 b3    	mov.b     #0x9d, w6
    1d82:	85 d9 21    	mov.w     #0x1d98, w5
    1d84:	95 42 78    	mov.b     [w5], w5
    1d86:	0e 02 78    	mov.w     w14, w4
    1d88:	80 01 78    	mov.w     w0, w3
    1d8a:	00 01 eb    	clr.w     w2
    1d8c:	80 00 eb    	clr.w     w1
    1d8e:	00 40 eb    	clr.b     w0
    1d90:	ee 08 07    	rcall     0x2f6e <_as3993TxRxGen2Bytes>
    1d92:	80 40 78    	mov.b     w0, w1
    1d94:	0b 00 37    	bra       0x1dac <.L27>

00001d96 <.L24>:
    1d96:	17 c0 b3    	mov.b     #0x1, w7
    1d98:	d6 c9 b3    	mov.b     #0x9d, w6
    1d9a:	85 d9 21    	mov.w     #0x1d98, w5
    1d9c:	95 42 78    	mov.b     [w5], w5
    1d9e:	0e 02 78    	mov.w     w14, w4
    1da0:	8a 01 78    	mov.w     w10, w3
    1da2:	00 01 eb    	clr.w     w2
    1da4:	80 00 eb    	clr.w     w1
    1da6:	08 40 78    	mov.b     w8, w0
    1da8:	e2 08 07    	rcall     0x2f6e <_as3993TxRxGen2Bytes>
    1daa:	80 40 78    	mov.b     w0, w1

00001dac <.L27>:
    1dac:	00 01 eb    	clr.w     w2
    1dae:	f0 cd b3    	mov.b     #0xdf, w0
    1db0:	80 cf 50    	sub.b     w1, w0, [w15]
    1db2:	58 00 32    	bra       Z, 0x1e64 <.L30>
    1db4:	01 04 e0    	cp0.b     w1
    1db6:	53 00 35    	bra       LT, 0x1e5e <.L31>
    1db8:	00 16 20    	mov.w     #0x160, w0
    1dba:	00 0f 78    	mov.w     w0, [w14]
    1dbc:	f0 c9 b3    	mov.b     #0x9f, w0
    1dbe:	0b 00 e0    	cp0.w     w11
    1dc0:	01 00 32    	bra       Z, 0x1dc4
    1dc2:	0c 40 78    	mov.b     w12, w0

00001dc4 <.L35>:
    1dc4:	80 43 eb    	clr.b     w7
    1dc6:	00 43 78    	mov.b     w0, w6
    1dc8:	85 d9 21    	mov.w     #0x1d98, w5
    1dca:	95 42 78    	mov.b     [w5], w5
    1dcc:	0e 02 78    	mov.w     w14, w4
    1dce:	43 d6 21    	mov.w     #0x1d64, w3
    1dd0:	00 01 eb    	clr.w     w2
    1dd2:	83 00 78    	mov.w     w3, w1
    1dd4:	07 40 78    	mov.b     w7, w0
    1dd6:	cb 08 07    	rcall     0x2f6e <_as3993TxRxGen2Bytes>
    1dd8:	41 d6 21    	mov.w     #0x1d64, w1
    1dda:	91 40 78    	mov.b     [w1], w1
    1ddc:	21 45 98    	mov.b     w1, [w10+2]
    1dde:	51 d6 21    	mov.w     #0x1d65, w1
    1de0:	91 40 78    	mov.b     [w1], w1
    1de2:	31 45 98    	mov.b     w1, [w10+3]
    1de4:	00 04 e0    	cp0.b     w0
    1de6:	3b 00 35    	bra       LT, 0x1e5e <.L31>
    1de8:	1e 00 78    	mov.w     [w14], w0
    1dea:	ef 0f 50    	sub.w     w0, #0xf, [w15]
    1dec:	38 00 36    	bra       LEU, 0x1e5e <.L31>
    1dee:	67 00 40    	add.w     w0, #0x7, w0
    1df0:	43 00 de    	lsr.w     w0, #0x3, w0
    1df2:	00 c0 e9    	dec2.b    w0, w0
    1df4:	40 65 98    	mov.b     w0, [w10+36]
    1df6:	01 c2 b3    	mov.b     #0x20, w1
    1df8:	81 4f 50    	sub.b     w0, w1, [w15]
    1dfa:	01 00 36    	bra       LEU, 0x1dfe <.L38>
    1dfc:	41 65 98    	mov.b     w1, [w10+36]

00001dfe <.L38>:
    1dfe:	64 00 45    	add.w     w10, #0x4, w0
    1e00:	4a 61 90    	mov.b     [w10+36], w2
    1e02:	02 81 fb    	ze        w2, w2
    1e04:	61 d6 21    	mov.w     #0x1d66, w1
    1e06:	4c f4 07    	rcall     0x6a0 <_memcpy>
    1e08:	0b 00 e0    	cp0.w     w11
    1e0a:	0d 00 32    	bra       Z, 0x1e26 <.L40>
    1e0c:	71 02 20    	mov.w     #0x27, w1
    1e0e:	8a 80 40    	add.w     w1, w10, w1
    1e10:	80 02 20    	mov.w     #0x28, w0
    1e12:	0a 00 40    	add.w     w0, w10, w0
    1e14:	a1 fe 07    	rcall     0x1b58 <_gen2GetAgcRssi>
    1e16:	aa 40 90    	mov.b     [w10+2], w1
    1e18:	81 0f b2    	and.w     #0xf8, w1
    1e1a:	c2 88 de    	asr.w     w1, #0x2, w1
    1e1c:	4a 60 90    	mov.b     [w10+36], w0
    1e1e:	00 80 fb    	ze        w0, w0
    1e20:	80 8f 50    	sub.w     w1, w0, [w15]
    1e22:	1f 00 32    	bra       Z, 0x1e62 <.L42>
    1e24:	1c 00 37    	bra       0x1e5e <.L31>

00001e26 <.L40>:
    1e26:	00 02 20    	mov.w     #0x20, w0
    1e28:	00 0f 78    	mov.w     w0, [w14]
    1e2a:	80 43 eb    	clr.b     w7
    1e2c:	0c 43 78    	mov.b     w12, w6
    1e2e:	85 d9 21    	mov.w     #0x1d98, w5
    1e30:	95 42 78    	mov.b     [w5], w5
    1e32:	0e 02 78    	mov.w     w14, w4
    1e34:	53 02 20    	mov.w     #0x25, w3
    1e36:	8a 81 41    	add.w     w3, w10, w3
    1e38:	00 01 eb    	clr.w     w2
    1e3a:	80 00 eb    	clr.w     w1
    1e3c:	07 40 78    	mov.b     w7, w0
    1e3e:	97 08 07    	rcall     0x2f6e <_as3993TxRxGen2Bytes>
    1e40:	00 44 78    	mov.b     w0, w8
    1e42:	71 02 20    	mov.w     #0x27, w1
    1e44:	8a 80 40    	add.w     w1, w10, w1
    1e46:	80 02 20    	mov.w     #0x28, w0
    1e48:	0a 00 40    	add.w     w0, w10, w0
    1e4a:	86 fe 07    	rcall     0x1b58 <_gen2GetAgcRssi>
    1e4c:	08 04 e0    	cp0.b     w8
    1e4e:	07 00 35    	bra       LT, 0x1e5e <.L31>
    1e50:	aa 40 90    	mov.b     [w10+2], w1
    1e52:	81 0f b2    	and.w     #0xf8, w1
    1e54:	c2 88 de    	asr.w     w1, #0x2, w1
    1e56:	4a 60 90    	mov.b     [w10+36], w0
    1e58:	00 80 fb    	ze        w0, w0
    1e5a:	80 8f 50    	sub.w     w1, w0, [w15]
    1e5c:	02 00 32    	bra       Z, 0x1e62 <.L42>

00001e5e <.L31>:
    1e5e:	00 81 eb    	setm.w    w2
    1e60:	01 00 37    	bra       0x1e64 <.L30>

00001e62 <.L42>:
    1e62:	12 00 20    	mov.w     #0x1, w2

00001e64 <.L30>:
    1e64:	02 00 78    	mov.w     w2, w0
    1e66:	4f 06 78    	mov.w     [--w15], w12
    1e68:	4f 05 be    	mov.d     [--w15], w10
    1e6a:	4f 04 be    	mov.d     [--w15], w8
    1e6c:	00 80 fa    	ulnk      
    1e6e:	00 00 06    	return    

00001e70 <_gen2SlotAutoAck>:
    1e70:	02 00 fa    	lnk       #0x2
    1e72:	88 9f be    	mov.d     w8, [w15++]
    1e74:	8a 9f be    	mov.d     w10, [w15++]
    1e76:	00 05 78    	mov.w     w0, w10
    1e78:	01 44 78    	mov.b     w1, w8
    1e7a:	83 04 78    	mov.w     w3, w9
    1e7c:	84 45 78    	mov.b     w4, w11
    1e7e:	00 16 20    	mov.w     #0x160, w0
    1e80:	00 0f 78    	mov.w     w0, [w14]
    1e82:	01 04 e0    	cp0.b     w1
    1e84:	16 00 32    	bra       Z, 0x1eb2 <.L47>
    1e86:	80 c9 b3    	mov.b     #0x98, w0
    1e88:	80 cf 50    	sub.b     w1, w0, [w15]
    1e8a:	23 00 3a    	bra       NZ, 0x1ed2 <.L46>
    1e8c:	82 40 78    	mov.b     w2, w1
    1e8e:	40 d6 21    	mov.w     #0x1d64, w0
    1e90:	f0 fe 07    	rcall     0x1c72 <_gen2PrepareQueryCmd>
    1e92:	00 40 eb    	clr.b     w0
    1e94:	09 00 e0    	cp0.w     w9
    1e96:	01 00 32    	bra       Z, 0x1e9a <.L51>
    1e98:	0b 40 78    	mov.b     w11, w0

00001e9a <.L51>:
    1e9a:	80 43 eb    	clr.b     w7
    1e9c:	00 43 78    	mov.b     w0, w6
    1e9e:	85 d9 21    	mov.w     #0x1d98, w5
    1ea0:	95 42 78    	mov.b     [w5], w5
    1ea2:	0e 02 78    	mov.w     w14, w4
    1ea4:	43 d6 21    	mov.w     #0x1d64, w3
    1ea6:	02 01 20    	mov.w     #0x10, w2
    1ea8:	83 00 78    	mov.w     w3, w1
    1eaa:	80 c9 b3    	mov.b     #0x98, w0
    1eac:	60 08 07    	rcall     0x2f6e <_as3993TxRxGen2Bytes>
    1eae:	80 40 78    	mov.b     w0, w1
    1eb0:	1f 00 37    	bra       0x1ef0 <.L52>

00001eb2 <.L47>:
    1eb2:	00 40 eb    	clr.b     w0
    1eb4:	03 00 e0    	cp0.w     w3
    1eb6:	01 00 32    	bra       Z, 0x1eba <.L55>
    1eb8:	04 40 78    	mov.b     w4, w0

00001eba <.L55>:
    1eba:	80 43 eb    	clr.b     w7
    1ebc:	00 43 78    	mov.b     w0, w6
    1ebe:	85 d9 21    	mov.w     #0x1d98, w5
    1ec0:	95 42 78    	mov.b     [w5], w5
    1ec2:	0e 02 78    	mov.w     w14, w4
    1ec4:	43 d6 21    	mov.w     #0x1d64, w3
    1ec6:	00 01 eb    	clr.w     w2
    1ec8:	80 00 eb    	clr.w     w1
    1eca:	07 40 78    	mov.b     w7, w0
    1ecc:	50 08 07    	rcall     0x2f6e <_as3993TxRxGen2Bytes>
    1ece:	80 40 78    	mov.b     w0, w1
    1ed0:	0f 00 37    	bra       0x1ef0 <.L52>

00001ed2 <.L46>:
    1ed2:	00 40 eb    	clr.b     w0
    1ed4:	03 00 e0    	cp0.w     w3
    1ed6:	01 00 32    	bra       Z, 0x1eda <.L58>
    1ed8:	04 40 78    	mov.b     w4, w0

00001eda <.L58>:
    1eda:	80 43 eb    	clr.b     w7
    1edc:	00 43 78    	mov.b     w0, w6
    1ede:	85 d9 21    	mov.w     #0x1d98, w5
    1ee0:	95 42 78    	mov.b     [w5], w5
    1ee2:	0e 02 78    	mov.w     w14, w4
    1ee4:	43 d6 21    	mov.w     #0x1d64, w3
    1ee6:	00 01 eb    	clr.w     w2
    1ee8:	80 00 eb    	clr.w     w1
    1eea:	08 40 78    	mov.b     w8, w0
    1eec:	40 08 07    	rcall     0x2f6e <_as3993TxRxGen2Bytes>
    1eee:	80 40 78    	mov.b     w0, w1

00001ef0 <.L52>:
    1ef0:	00 01 eb    	clr.w     w2
    1ef2:	f0 cd b3    	mov.b     #0xdf, w0
    1ef4:	80 cf 50    	sub.b     w1, w0, [w15]
    1ef6:	44 00 32    	bra       Z, 0x1f80 <.L61>
    1ef8:	64 dd bf    	mov.b     0x1d64, WREG
    1efa:	20 45 98    	mov.b     w0, [w10+2]
    1efc:	65 dd bf    	mov.b     0x1d65, WREG
    1efe:	30 45 98    	mov.b     w0, [w10+3]
    1f00:	01 04 e0    	cp0.b     w1
    1f02:	3b 00 35    	bra       LT, 0x1f7a <.L62>
    1f04:	1e 00 78    	mov.w     [w14], w0
    1f06:	ef 0f 50    	sub.w     w0, #0xf, [w15]
    1f08:	38 00 36    	bra       LEU, 0x1f7a <.L62>
    1f0a:	67 00 40    	add.w     w0, #0x7, w0
    1f0c:	43 00 de    	lsr.w     w0, #0x3, w0
    1f0e:	00 c0 e9    	dec2.b    w0, w0
    1f10:	40 65 98    	mov.b     w0, [w10+36]
    1f12:	01 c2 b3    	mov.b     #0x20, w1
    1f14:	81 4f 50    	sub.b     w0, w1, [w15]
    1f16:	01 00 36    	bra       LEU, 0x1f1a <.L65>
    1f18:	41 65 98    	mov.b     w1, [w10+36]

00001f1a <.L65>:
    1f1a:	64 00 45    	add.w     w10, #0x4, w0
    1f1c:	4a 61 90    	mov.b     [w10+36], w2
    1f1e:	02 81 fb    	ze        w2, w2
    1f20:	61 d6 21    	mov.w     #0x1d66, w1
    1f22:	be f3 07    	rcall     0x6a0 <_memcpy>
    1f24:	09 00 e0    	cp0.w     w9
    1f26:	0d 00 32    	bra       Z, 0x1f42 <.L67>
    1f28:	71 02 20    	mov.w     #0x27, w1
    1f2a:	8a 80 40    	add.w     w1, w10, w1
    1f2c:	80 02 20    	mov.w     #0x28, w0
    1f2e:	0a 00 40    	add.w     w0, w10, w0
    1f30:	13 fe 07    	rcall     0x1b58 <_gen2GetAgcRssi>
    1f32:	aa 40 90    	mov.b     [w10+2], w1
    1f34:	81 0f b2    	and.w     #0xf8, w1
    1f36:	c2 88 de    	asr.w     w1, #0x2, w1
    1f38:	4a 60 90    	mov.b     [w10+36], w0
    1f3a:	00 80 fb    	ze        w0, w0
    1f3c:	80 8f 50    	sub.w     w1, w0, [w15]
    1f3e:	1f 00 32    	bra       Z, 0x1f7e <.L69>
    1f40:	1c 00 37    	bra       0x1f7a <.L62>

00001f42 <.L67>:
    1f42:	00 02 20    	mov.w     #0x20, w0
    1f44:	00 0f 78    	mov.w     w0, [w14]
    1f46:	80 43 eb    	clr.b     w7
    1f48:	0b 43 78    	mov.b     w11, w6
    1f4a:	85 d9 21    	mov.w     #0x1d98, w5
    1f4c:	95 42 78    	mov.b     [w5], w5
    1f4e:	0e 02 78    	mov.w     w14, w4
    1f50:	53 02 20    	mov.w     #0x25, w3
    1f52:	8a 81 41    	add.w     w3, w10, w3
    1f54:	00 01 eb    	clr.w     w2
    1f56:	80 00 eb    	clr.w     w1
    1f58:	07 40 78    	mov.b     w7, w0
    1f5a:	09 08 07    	rcall     0x2f6e <_as3993TxRxGen2Bytes>
    1f5c:	00 44 78    	mov.b     w0, w8
    1f5e:	71 02 20    	mov.w     #0x27, w1
    1f60:	8a 80 40    	add.w     w1, w10, w1
    1f62:	80 02 20    	mov.w     #0x28, w0
    1f64:	0a 00 40    	add.w     w0, w10, w0
    1f66:	f8 fd 07    	rcall     0x1b58 <_gen2GetAgcRssi>
    1f68:	08 04 e0    	cp0.b     w8
    1f6a:	07 00 35    	bra       LT, 0x1f7a <.L62>
    1f6c:	aa 40 90    	mov.b     [w10+2], w1
    1f6e:	81 0f b2    	and.w     #0xf8, w1
    1f70:	c2 88 de    	asr.w     w1, #0x2, w1
    1f72:	4a 60 90    	mov.b     [w10+36], w0
    1f74:	00 80 fb    	ze        w0, w0
    1f76:	80 8f 50    	sub.w     w1, w0, [w15]
    1f78:	02 00 32    	bra       Z, 0x1f7e <.L69>

00001f7a <.L62>:
    1f7a:	00 81 eb    	setm.w    w2
    1f7c:	01 00 37    	bra       0x1f80 <.L61>

00001f7e <.L69>:
    1f7e:	12 00 20    	mov.w     #0x1, w2

00001f80 <.L61>:
    1f80:	02 00 78    	mov.w     w2, w0
    1f82:	4f 05 be    	mov.d     [--w15], w10
    1f84:	4f 04 be    	mov.d     [--w15], w8
    1f86:	00 80 fa    	ulnk      
    1f88:	00 00 06    	return    

00001f8a <_gen2ReqRNHandleChar>:
    1f8a:	02 00 fa    	lnk       #0x2
    1f8c:	02 02 20    	mov.w     #0x20, w2
    1f8e:	02 0f 78    	mov.w     w2, [w14]
    1f90:	12 cc b3    	mov.b     #0xc1, w2
    1f92:	00 01 fd    	exch      w0, w2
    1f94:	64 fd b7    	mov.b     WREG, 0x1d64
    1f96:	00 01 fd    	exch      w0, w2
    1f98:	80 1f 78    	mov.w     w0, [w15++]
    1f9a:	10 40 78    	mov.b     [w0], w0
    1f9c:	65 fd b7    	mov.b     WREG, 0x1d65
    1f9e:	4f 00 78    	mov.w     [--w15], w0
    1fa0:	10 40 90    	mov.b     [w0+1], w0
    1fa2:	66 fd b7    	mov.b     WREG, 0x1d66
    1fa4:	17 c0 b3    	mov.b     #0x1, w7
    1fa6:	00 43 eb    	clr.b     w6
    1fa8:	85 d9 21    	mov.w     #0x1d98, w5
    1faa:	95 42 78    	mov.b     [w5], w5
    1fac:	0e 02 78    	mov.w     w14, w4
    1fae:	81 01 78    	mov.w     w1, w3
    1fb0:	82 01 20    	mov.w     #0x18, w2
    1fb2:	41 d6 21    	mov.w     #0x1d64, w1
    1fb4:	00 c9 b3    	mov.b     #0x90, w0
    1fb6:	db 07 07    	rcall     0x2f6e <_as3993TxRxGen2Bytes>
    1fb8:	d1 fb 2f    	mov.w     #0xffbd, w1
    1fba:	00 04 e0    	cp0.b     w0
    1fbc:	01 00 35    	bra       LT, 0x1fc0 <.L75>
    1fbe:	80 00 eb    	clr.w     w1

00001fc0 <.L75>:
    1fc0:	01 00 78    	mov.w     w1, w0
    1fc2:	00 80 fa    	ulnk      
    1fc4:	00 00 06    	return    

00001fc6 <_gen2AccessTag>:
    1fc6:	0a 00 fa    	lnk       #0xa
    1fc8:	88 9f be    	mov.d     w8, [w15++]
    1fca:	8a 9f be    	mov.d     w10, [w15++]
    1fcc:	8c 1f 78    	mov.w     w12, [w15++]
    1fce:	00 04 be    	mov.d     w0, w8
    1fd0:	2b c0 b3    	mov.b     #0x2, w11
    1fd2:	0e 86 e8    	inc2.w    w14, w12

00001fd4 <.L78>:
    1fd4:	e7 00 47    	add.w     w14, #0x7, w1
    1fd6:	50 02 20    	mov.w     #0x25, w0
    1fd8:	08 00 40    	add.w     w0, w8, w0
    1fda:	d7 ff 07    	rcall     0x1f8a <_gen2ReqRNHandleChar>
    1fdc:	00 04 e0    	cp0.b     w0
    1fde:	29 00 3a    	bra       NZ, 0x2032 <.L88>
    1fe0:	60 cc b3    	mov.b     #0xc6, w0
    1fe2:	64 fd b7    	mov.b     WREG, 0x1d64
    1fe4:	67 00 47    	add.w     w14, #0x7, w0
    1fe6:	99 40 78    	mov.b     [w9], w1
    1fe8:	10 c0 68    	xor.b     w1, [w0], w0
    1fea:	65 fd b7    	mov.b     WREG, 0x1d65
    1fec:	19 40 90    	mov.b     [w9+1], w0
    1fee:	8e 48 90    	mov.b     [w14+8], w1
    1ff0:	01 40 68    	xor.b     w0, w1, w0
    1ff2:	66 fd b7    	mov.b     WREG, 0x1d66
    1ff4:	58 60 90    	mov.b     [w8+37], w0
    1ff6:	67 fd b7    	mov.b     WREG, 0x1d67
    1ff8:	68 60 90    	mov.b     [w8+38], w0
    1ffa:	68 fd b7    	mov.b     WREG, 0x1d68
    1ffc:	00 02 20    	mov.w     #0x20, w0
    1ffe:	00 0f 78    	mov.w     w0, [w14]
    2000:	17 c0 b3    	mov.b     #0x1, w7
    2002:	00 43 eb    	clr.b     w6
    2004:	85 d9 21    	mov.w     #0x1d98, w5
    2006:	95 42 78    	mov.b     [w5], w5
    2008:	0e 02 78    	mov.w     w14, w4
    200a:	8c 01 78    	mov.w     w12, w3
    200c:	82 02 20    	mov.w     #0x28, w2
    200e:	41 d6 21    	mov.w     #0x1d64, w1
    2010:	00 c9 b3    	mov.b     #0x90, w0
    2012:	ad 07 07    	rcall     0x2f6e <_as3993TxRxGen2Bytes>
    2014:	00 41 78    	mov.b     w0, w2
    2016:	00 04 e0    	cp0.b     w0
    2018:	0e 00 35    	bra       LT, 0x2036 <.L82>
    201a:	89 84 e8    	inc2.w    w9, w9
    201c:	e8 60 90    	mov.b     [w8+38], w1
    201e:	3e 40 90    	mov.b     [w14+3], w0
    2020:	81 4f 50    	sub.b     w0, w1, [w15]
    2022:	09 00 3a    	bra       NZ, 0x2036 <.L82>
    2024:	58 60 90    	mov.b     [w8+37], w0
    2026:	9c 4f 10    	subr.b    w0, [w12], [w15]
    2028:	06 00 3a    	bra       NZ, 0x2036 <.L82>
    202a:	8b 45 e9    	dec.b     w11, w11
    202c:	d3 ff 3a    	bra       NZ, 0x1fd4 <.L78>
    202e:	02 00 fb    	se        w2, w0
    2030:	03 00 37    	bra       0x2038 <.L81>

00002032 <.L88>:
    2032:	00 00 fb    	se        w0, w0
    2034:	01 00 37    	bra       0x2038 <.L81>

00002036 <.L82>:
    2036:	e0 fb 2f    	mov.w     #0xffbe, w0

00002038 <.L81>:
    2038:	4f 06 78    	mov.w     [--w15], w12
    203a:	4f 05 be    	mov.d     [--w15], w10
    203c:	4f 04 be    	mov.d     [--w15], w8
    203e:	00 80 fa    	ulnk      
    2040:	00 00 06    	return    

00002042 <_gen2LockTag>:
    2042:	02 00 fa    	lnk       #0x2
    2044:	88 1f 78    	mov.w     w8, [w15++]
    2046:	80 01 78    	mov.w     w0, w3
    2048:	02 04 78    	mov.w     w2, w8
    204a:	12 02 20    	mov.w     #0x21, w2
    204c:	02 0f 78    	mov.w     w2, [w14]
    204e:	52 ca b3    	mov.b     #0xa5, w2
    2050:	02 4c 78    	mov.b     w2, [w8]
    2052:	52 cc b3    	mov.b     #0xc5, w2
    2054:	02 00 78    	mov.w     w2, w0
    2056:	64 fd b7    	mov.b     WREG, 0x1d64
    2058:	11 40 78    	mov.b     [w1], w0
    205a:	65 fd b7    	mov.b     WREG, 0x1d65
    205c:	11 40 90    	mov.b     [w1+1], w0
    205e:	66 fd b7    	mov.b     WREG, 0x1d66
    2060:	a1 40 90    	mov.b     [w1+2], w1
    2062:	02 cf b3    	mov.b     #0xf0, w2
    2064:	82 c0 60    	and.b     w1, w2, w1
    2066:	01 00 78    	mov.w     w1, w0
    2068:	67 fd b7    	mov.b     WREG, 0x1d67
    206a:	51 02 20    	mov.w     #0x25, w1
    206c:	83 80 40    	add.w     w1, w3, w1
    206e:	43 c0 b3    	mov.b     #0x4, w3
    2070:	22 c0 b3    	mov.b     #0x2, w2
    2072:	70 d6 21    	mov.w     #0x1d67, w0
    2074:	d9 0f 07    	rcall     0x4028 <_insertBitStream>
    2076:	17 c0 b3    	mov.b     #0x1, w7
    2078:	00 43 eb    	clr.b     w6
    207a:	80 c2 eb    	setm.b    w5
    207c:	0e 02 78    	mov.w     w14, w4
    207e:	43 d6 21    	mov.w     #0x1d64, w3
    2080:	c2 02 20    	mov.w     #0x2c, w2
    2082:	83 00 78    	mov.w     w3, w1
    2084:	10 c9 b3    	mov.b     #0x91, w0
    2086:	73 07 07    	rcall     0x2f6e <_as3993TxRxGen2Bytes>
    2088:	80 40 78    	mov.b     w0, w1
    208a:	e0 cd b3    	mov.b     #0xde, w0
    208c:	80 cf 50    	sub.b     w1, w0, [w15]
    208e:	04 00 3a    	bra       NZ, 0x2098 <.L92>
    2090:	1e 00 e0    	cp0.w     [w14]
    2092:	02 00 32    	bra       Z, 0x2098 <.L92>
    2094:	64 dd bf    	mov.b     0x1d64, WREG
    2096:	00 4c 78    	mov.b     w0, [w8]

00002098 <.L92>:
    2098:	01 00 fb    	se        w1, w0
    209a:	4f 04 78    	mov.w     [--w15], w8
    209c:	00 80 fa    	ulnk      
    209e:	00 00 06    	return    

000020a0 <_gen2KillTag>:
    20a0:	08 00 fa    	lnk       #0x8
    20a2:	88 9f be    	mov.d     w8, [w15++]
    20a4:	8a 9f be    	mov.d     w10, [w15++]
    20a6:	8c 9f be    	mov.d     w12, [w15++]
    20a8:	01 04 78    	mov.w     w1, w8
    20aa:	02 46 78    	mov.b     w2, w12
    20ac:	43 47 98    	mov.b     w3, [w14+4]
    20ae:	34 07 98    	mov.w     w4, [w14+6]
    20b0:	01 02 20    	mov.w     #0x20, w1
    20b2:	11 07 98    	mov.w     w1, [w14+2]
    20b4:	8b d9 21    	mov.w     #0x1d98, w11
    20b6:	9b 45 78    	mov.b     [w11], w11
    20b8:	51 ca b3    	mov.b     #0xa5, w1
    20ba:	01 4a 78    	mov.b     w1, [w4]
    20bc:	0d c9 b3    	mov.b     #0x90, w13
    20be:	80 04 eb    	clr.w     w9
    20c0:	5a 02 20    	mov.w     #0x25, w10
    20c2:	00 05 45    	add.w     w10, w0, w10

000020c4 <.L97>:
    20c4:	8e 00 78    	mov.w     w14, w1
    20c6:	0a 00 78    	mov.w     w10, w0
    20c8:	60 ff 07    	rcall     0x1f8a <_gen2ReqRNHandleChar>
    20ca:	80 40 78    	mov.b     w0, w1
    20cc:	00 04 e0    	cp0.b     w0
    20ce:	28 00 3a    	bra       NZ, 0x2120 <.L98>
    20d0:	e1 cf 54    	sub.b     w9, #0x1, [w15]
    20d2:	05 00 3a    	bra       NZ, 0x20de <.L100>
    20d4:	10 02 20    	mov.w     #0x21, w0
    20d6:	10 07 98    	mov.w     w0, [w14+2]
    20d8:	4e 46 90    	mov.b     [w14+4], w12
    20da:	1d c9 b3    	mov.b     #0x91, w13
    20dc:	80 c5 eb    	setm.b    w11

000020de <.L100>:
    20de:	40 cc b3    	mov.b     #0xc4, w0
    20e0:	64 fd b7    	mov.b     WREG, 0x1d64
    20e2:	98 40 78    	mov.b     [w8], w1
    20e4:	1e c0 68    	xor.b     w1, [w14], w0
    20e6:	65 fd b7    	mov.b     WREG, 0x1d65
    20e8:	18 40 90    	mov.b     [w8+1], w0
    20ea:	9e 40 90    	mov.b     [w14+1], w1
    20ec:	01 40 68    	xor.b     w0, w1, w0
    20ee:	66 fd b7    	mov.b     WREG, 0x1d66
    20f0:	45 60 dd    	sl.w      w12, #0x5, w0
    20f2:	67 fd b7    	mov.b     WREG, 0x1d67
    20f4:	53 c0 b3    	mov.b     #0x5, w3
    20f6:	22 c0 b3    	mov.b     #0x2, w2
    20f8:	8a 00 78    	mov.w     w10, w1
    20fa:	70 d6 21    	mov.w     #0x1d67, w0
    20fc:	95 0f 07    	rcall     0x4028 <_insertBitStream>
    20fe:	17 c0 b3    	mov.b     #0x1, w7
    2100:	00 43 eb    	clr.b     w6
    2102:	8b 42 78    	mov.b     w11, w5
    2104:	0e 82 e8    	inc2.w    w14, w4
    2106:	43 d6 21    	mov.w     #0x1d64, w3
    2108:	b2 02 20    	mov.w     #0x2b, w2
    210a:	83 00 78    	mov.w     w3, w1
    210c:	0d 40 78    	mov.b     w13, w0
    210e:	2f 07 07    	rcall     0x2f6e <_as3993TxRxGen2Bytes>
    2110:	80 40 78    	mov.b     w0, w1
    2112:	00 04 e0    	cp0.b     w0
    2114:	05 00 3a    	bra       NZ, 0x2120 <.L98>
    2116:	08 84 e8    	inc2.w    w8, w8
    2118:	89 04 e8    	inc.w     w9, w9
    211a:	e2 8f 54    	sub.w     w9, #0x2, [w15]
    211c:	0b 00 32    	bra       Z, 0x2134 <.L104>
    211e:	d2 ff 37    	bra       0x20c4 <.L97>

00002120 <.L98>:
    2120:	e0 cd b3    	mov.b     #0xde, w0
    2122:	80 cf 50    	sub.b     w1, w0, [w15]
    2124:	07 00 3a    	bra       NZ, 0x2134 <.L104>
    2126:	1e 00 90    	mov.w     [w14+2], w0
    2128:	00 00 e0    	cp0.w     w0
    212a:	04 00 32    	bra       Z, 0x2134 <.L104>
    212c:	3e 01 90    	mov.w     [w14+6], w2
    212e:	64 dd bf    	mov.b     0x1d64, WREG
    2130:	00 49 78    	mov.b     w0, [w2]
    2132:	e1 cd b3    	mov.b     #0xde, w1

00002134 <.L104>:
    2134:	01 00 fb    	se        w1, w0
    2136:	4f 06 be    	mov.d     [--w15], w12
    2138:	4f 05 be    	mov.d     [--w15], w10
    213a:	4f 04 be    	mov.d     [--w15], w8
    213c:	00 80 fa    	ulnk      
    213e:	00 00 06    	return    

00002140 <_gen2WriteWordToTag>:
    2140:	04 00 fa    	lnk       #0x4
    2142:	88 9f be    	mov.d     w8, [w15++]
    2144:	8a 9f be    	mov.d     w10, [w15++]
    2146:	8c 9f be    	mov.d     w12, [w15++]
    2148:	01 45 78    	mov.b     w1, w10
    214a:	02 04 be    	mov.d     w2, w8
    214c:	04 06 be    	mov.d     w4, w12
    214e:	11 02 20    	mov.w     #0x21, w1
    2150:	11 07 98    	mov.w     w1, [w14+2]
    2152:	51 ca b3    	mov.b     #0xa5, w1
    2154:	81 4a 78    	mov.b     w1, [w5]
    2156:	5b 02 20    	mov.w     #0x25, w11
    2158:	80 85 45    	add.w     w11, w0, w11
    215a:	8e 00 78    	mov.w     w14, w1
    215c:	0b 00 78    	mov.w     w11, w0
    215e:	15 ff 07    	rcall     0x1f8a <_gen2ReqRNHandleChar>
    2160:	00 04 e0    	cp0.b     w0
    2162:	02 00 32    	bra       Z, 0x2168 <.L111>
    2164:	00 00 fb    	se        w0, w0
    2166:	3a 00 37    	bra       0x21dc <.L113>

00002168 <.L111>:
    2168:	30 cc b3    	mov.b     #0xc3, w0
    216a:	64 fd b7    	mov.b     WREG, 0x1d64
    216c:	46 50 dd    	sl.w      w10, #0x6, w0
    216e:	65 fd b7    	mov.b     WREG, 0x1d65
    2170:	63 c0 b3    	mov.b     #0x6, w3
    2172:	52 d6 21    	mov.w     #0x1d65, w2
    2174:	08 00 be    	mov.d     w8, w0
    2176:	df fc 07    	rcall     0x1b36 <_gen2InsertEBV>
    2178:	9c 40 78    	mov.b     [w12], w1
    217a:	1e c1 68    	xor.b     w1, [w14], w2
    217c:	80 84 fb    	ze        w0, w9
    217e:	89 01 e8    	inc.w     w9, w3
    2180:	48 d6 21    	mov.w     #0x1d64, w8
    2182:	02 81 fb    	ze        w2, w2
    2184:	42 10 de    	lsr.w     w2, #0x2, w0
    2186:	e3 40 7c    	mov.b     [w3+w8], w1
    2188:	01 40 70    	ior.b     w0, w1, w0
    218a:	80 71 7c    	mov.b     w0, [w3+w8]
    218c:	89 81 e8    	inc2.w    w9, w3
    218e:	46 11 dd    	sl.w      w2, #0x6, w2
    2190:	82 71 7c    	mov.b     w2, [w3+w8]
    2192:	1c 40 90    	mov.b     [w12+1], w0
    2194:	9e 40 90    	mov.b     [w14+1], w1
    2196:	01 40 68    	xor.b     w0, w1, w0
    2198:	00 80 fb    	ze        w0, w0
    219a:	c2 00 de    	lsr.w     w0, #0x2, w1
    219c:	01 41 71    	ior.b     w2, w1, w2
    219e:	82 71 7c    	mov.b     w2, [w3+w8]
    21a0:	e3 80 44    	add.w     w9, #0x3, w1
    21a2:	46 00 dd    	sl.w      w0, #0x6, w0
    21a4:	80 70 7c    	mov.b     w0, [w1+w8]
    21a6:	70 d6 21    	mov.w     #0x1d67, w0
    21a8:	00 80 44    	add.w     w9, w0, w0
    21aa:	63 c0 b3    	mov.b     #0x6, w3
    21ac:	22 c0 b3    	mov.b     #0x2, w2
    21ae:	8b 00 78    	mov.w     w11, w1
    21b0:	3b 0f 07    	rcall     0x4028 <_insertBitStream>
    21b2:	43 48 dd    	sl.w      w9, #0x3, w0
    21b4:	a2 02 20    	mov.w     #0x2a, w2
    21b6:	00 01 41    	add.w     w2, w0, w2
    21b8:	17 c0 b3    	mov.b     #0x1, w7
    21ba:	00 43 eb    	clr.b     w6
    21bc:	80 c2 eb    	setm.b    w5
    21be:	0e 82 e8    	inc2.w    w14, w4
    21c0:	88 01 78    	mov.w     w8, w3
    21c2:	88 00 78    	mov.w     w8, w1
    21c4:	10 c9 b3    	mov.b     #0x91, w0
    21c6:	d3 06 07    	rcall     0x2f6e <_as3993TxRxGen2Bytes>
    21c8:	80 40 78    	mov.b     w0, w1
    21ca:	e0 cd b3    	mov.b     #0xde, w0
    21cc:	80 cf 50    	sub.b     w1, w0, [w15]
    21ce:	05 00 3a    	bra       NZ, 0x21da <.L114>
    21d0:	1e 00 90    	mov.w     [w14+2], w0
    21d2:	00 00 e0    	cp0.w     w0
    21d4:	02 00 32    	bra       Z, 0x21da <.L114>
    21d6:	64 dd bf    	mov.b     0x1d64, WREG
    21d8:	80 4e 78    	mov.b     w0, [w13]

000021da <.L114>:
    21da:	01 00 fb    	se        w1, w0

000021dc <.L113>:
    21dc:	4f 06 be    	mov.d     [--w15], w12
    21de:	4f 05 be    	mov.d     [--w15], w10
    21e0:	4f 04 be    	mov.d     [--w15], w8
    21e2:	00 80 fa    	ulnk      
    21e4:	00 00 06    	return    

000021e6 <_gen2ReadFromTag>:
    21e6:	02 00 fa    	lnk       #0x2
    21e8:	88 9f be    	mov.d     w8, [w15++]
    21ea:	8a 9f be    	mov.d     w10, [w15++]
    21ec:	8c 1f 78    	mov.w     w12, [w15++]
    21ee:	00 05 78    	mov.w     w0, w10
    21f0:	02 03 be    	mov.d     w2, w6
    21f2:	85 05 78    	mov.w     w5, w11
    21f4:	04 84 fb    	ze        w4, w8
    21f6:	44 40 dd    	sl.w      w8, #0x4, w0
    21f8:	12 02 20    	mov.w     #0x21, w2
    21fa:	02 0f 40    	add.w     w0, w2, [w14]
    21fc:	20 cc b3    	mov.b     #0xc2, w0
    21fe:	64 fd b7    	mov.b     WREG, 0x1d64
    2200:	c6 08 dd    	sl.w      w1, #0x6, w1
    2202:	01 00 78    	mov.w     w1, w0
    2204:	65 fd b7    	mov.b     WREG, 0x1d65
    2206:	63 c0 b3    	mov.b     #0x6, w3
    2208:	52 d6 21    	mov.w     #0x1d65, w2
    220a:	06 00 be    	mov.d     w6, w0
    220c:	94 fc 07    	rcall     0x1b36 <_gen2InsertEBV>
    220e:	00 86 fb    	ze        w0, w12
    2210:	0c 01 e8    	inc.w     w12, w2
    2212:	49 d6 21    	mov.w     #0x1d64, w9
    2214:	42 40 de    	lsr.w     w8, #0x2, w0
    2216:	e2 c0 7c    	mov.b     [w2+w9], w1
    2218:	01 40 70    	ior.b     w0, w1, w0
    221a:	00 f1 7c    	mov.b     w0, [w2+w9]
    221c:	0c 80 e8    	inc2.w    w12, w0
    221e:	46 44 dd    	sl.w      w8, #0x6, w8
    2220:	08 f0 7c    	mov.b     w8, [w0+w9]
    2222:	51 02 20    	mov.w     #0x25, w1
    2224:	8a 80 40    	add.w     w1, w10, w1
    2226:	60 d6 21    	mov.w     #0x1d66, w0
    2228:	00 00 46    	add.w     w12, w0, w0
    222a:	63 c0 b3    	mov.b     #0x6, w3
    222c:	22 c0 b3    	mov.b     #0x2, w2
    222e:	fc 0e 07    	rcall     0x4028 <_insertBitStream>
    2230:	43 60 dd    	sl.w      w12, #0x3, w0
    2232:	22 02 20    	mov.w     #0x22, w2
    2234:	00 01 41    	add.w     w2, w0, w2
    2236:	17 c0 b3    	mov.b     #0x1, w7
    2238:	00 43 eb    	clr.b     w6
    223a:	85 d9 21    	mov.w     #0x1d98, w5
    223c:	95 42 78    	mov.b     [w5], w5
    223e:	0e 02 78    	mov.w     w14, w4
    2240:	8b 01 78    	mov.w     w11, w3
    2242:	89 00 78    	mov.w     w9, w1
    2244:	10 c9 b3    	mov.b     #0x91, w0
    2246:	93 06 07    	rcall     0x2f6e <_as3993TxRxGen2Bytes>
    2248:	00 00 fb    	se        w0, w0
    224a:	4f 06 78    	mov.w     [--w15], w12
    224c:	4f 05 be    	mov.d     [--w15], w10
    224e:	4f 04 be    	mov.d     [--w15], w8
    2250:	00 80 fa    	ulnk      
    2252:	00 00 06    	return    

00002254 <_gen2PrintGen2Settings>:
    2254:	0a 00 fa    	lnk       #0xa
    2256:	0e 01 78    	mov.w     w14, w2
    2258:	91 c0 b3    	mov.b     #0x9, w1
    225a:	10 c0 b3    	mov.b     #0x1, w0
    225c:	fc 02 07    	rcall     0x2856 <_as3993ContinuousRead>
    225e:	00 80 fa    	ulnk      
    2260:	00 00 06    	return    

00002262 <_gen2PrintEPC>:
    2262:	00 00 fa    	lnk       #0x0
    2264:	40 60 90    	mov.b     [w0+36], w0
    2266:	80 80 fb    	ze        w0, w1
    2268:	00 04 e0    	cp0.b     w0
    226a:	04 00 32    	bra       Z, 0x2274 <.L126>
    226c:	00 00 eb    	clr.w     w0

0000226e <.L125>:
    226e:	00 00 e8    	inc.w     w0, w0
    2270:	81 0f 50    	sub.w     w0, w1, [w15]
    2272:	fd ff 39    	bra       NC, 0x226e <.L125>

00002274 <.L126>:
    2274:	00 80 fa    	ulnk      
    2276:	00 00 06    	return    

00002278 <_gen2PrintTagInfo>:
    2278:	00 00 fa    	lnk       #0x0
    227a:	01 04 e0    	cp0.b     w1
    227c:	04 00 32    	bra       Z, 0x2286 <.L132>
    227e:	00 40 eb    	clr.b     w0

00002280 <.L131>:
    2280:	00 40 e8    	inc.b     w0, w0
    2282:	80 cf 50    	sub.b     w1, w0, [w15]
    2284:	fd ff 3a    	bra       NZ, 0x2280 <.L131>

00002286 <.L132>:
    2286:	00 80 fa    	ulnk      
    2288:	00 00 06    	return    

0000228a <_gen2SearchForTags>:
    228a:	0c 00 fa    	lnk       #0xc
    228c:	88 9f be    	mov.d     w8, [w15++]
    228e:	8a 9f be    	mov.d     w10, [w15++]
    2290:	8c 9f be    	mov.d     w12, [w15++]
    2292:	20 07 98    	mov.w     w0, [w14+4]
    2294:	81 45 78    	mov.b     w1, w11
    2296:	62 47 98    	mov.b     w2, [w14+6]
    2298:	43 07 98    	mov.w     w3, [w14+8]
    229a:	04 05 78    	mov.w     w4, w10
    229c:	56 07 98    	mov.w     w6, [w14+10]
    229e:	90 c9 b3    	mov.b     #0x99, w0
    22a0:	00 4f 78    	mov.b     w0, [w14]
    22a2:	05 00 e0    	cp0.w     w5
    22a4:	02 00 3a    	bra       NZ, 0x22aa <.L137>
    22a6:	80 40 eb    	clr.b     w1
    22a8:	01 4f 78    	mov.b     w1, [w14]

000022aa <.L137>:
    22aa:	5e 01 90    	mov.w     [w14+10], w2
    22ac:	02 00 e0    	cp0.w     w2
    22ae:	03 00 32    	bra       Z, 0x22b6 <.L138>
    22b0:	00 40 eb    	clr.b     w0
    22b2:	00 4f 78    	mov.b     w0, [w14]
    22b4:	1a 00 20    	mov.w     #0x1, w10

000022b6 <.L138>:
    22b6:	10 c0 b3    	mov.b     #0x1, w0
    22b8:	39 05 07    	rcall     0x2d2c <_as3993AntennaPower>
    22ba:	42 d6 21    	mov.w     #0x1d64, w2
    22bc:	21 c0 b3    	mov.b     #0x2, w1
    22be:	70 c3 b3    	mov.b     #0x37, w0
    22c0:	ca 02 07    	rcall     0x2856 <_as3993ContinuousRead>
    22c2:	80 00 eb    	clr.w     w1
    22c4:	91 ef 88    	mov.w     w1, 0x1df2
    22c6:	0b 04 e0    	cp0.b     w11
    22c8:	09 00 32    	bra       Z, 0x22dc <.L140>
    22ca:	2e 00 90    	mov.w     [w14+4], w0
    22cc:	01 41 78    	mov.b     w1, w2

000022ce <.L142>:
    22ce:	01 48 78    	mov.b     w1, [w0]
    22d0:	11 40 98    	mov.b     w1, [w0+1]
    22d2:	41 60 98    	mov.b     w1, [w0+36]
    22d4:	02 41 e8    	inc.b     w2, w2
    22d6:	60 03 b0    	add.w     #0x36, w0
    22d8:	82 cf 55    	sub.b     w11, w2, [w15]
    22da:	f9 ff 3a    	bra       NZ, 0x22ce <.L142>

000022dc <.L140>:
    22dc:	ee 40 90    	mov.b     [w14+6], w1
    22de:	01 81 fb    	ze        w1, w2
    22e0:	10 00 20    	mov.w     #0x1, w0
    22e2:	01 00 20    	mov.w     #0x0, w1

000022e4 <.LB1360>:
    22e4:	02 01 e9    	dec.w     w2, w2
    22e6:	03 00 33    	bra       N, 0x22ee <.LE1360>
    22e8:	00 00 40    	add.w     w0, w0, w0
    22ea:	81 80 48    	addc.w    w1, w1, w1
    22ec:	fb ff 37    	bra       0x22e4 <.LB1360>

000022ee <.LE1360>:
    22ee:	10 07 98    	mov.w     w0, [w14+2]
    22f0:	80 06 eb    	clr.w     w13
    22f2:	8c c9 b3    	mov.b     #0x98, w12
    22f4:	8d 04 78    	mov.w     w13, w9

000022f6 <.L143>:
    22f6:	0b 80 fb    	ze        w11, w0
    22f8:	80 8f 56    	sub.w     w13, w0, [w15]
    22fa:	2e 00 31    	bra       C, 0x2358 <.L144>
    22fc:	60 03 20    	mov.w     #0x36, w0
    22fe:	00 e8 b9    	mul.ss    w13, w0, w0
    2300:	2e 01 90    	mov.w     [w14+4], w2
    2302:	00 04 41    	add.w     w2, w0, w8
    2304:	8a 01 ea    	neg.w     w10, w3
    2306:	8a 81 71    	ior.w     w3, w10, w3
    2308:	cf 19 de    	lsr.w     w3, #0xf, w3
    230a:	1e 42 78    	mov.b     [w14], w4
    230c:	e1 81 11    	subr.w    w3, #0x1, w3
    230e:	6e 41 90    	mov.b     [w14+6], w2
    2310:	8c 40 78    	mov.b     w12, w1
    2312:	08 00 78    	mov.w     w8, w0
    2314:	16 fd 07    	rcall     0x1d42 <_gen2Slot>
    2316:	00 04 e0    	cp0.b     w0
    2318:	05 00 32    	bra       Z, 0x2324 <.L149>
    231a:	e1 4f 50    	sub.b     w0, #0x1, [w15]
    231c:	07 00 32    	bra       Z, 0x232c <.L150>
    231e:	e1 4f 40    	add.b     w0, #0x1, [w15]
    2320:	11 00 3a    	bra       NZ, 0x2344 <.L147>
    2322:	02 00 37    	bra       0x2328 <.L148>

00002324 <.L149>:
    2324:	9c c9 b3    	mov.b     #0x99, w12
    2326:	0e 00 37    	bra       0x2344 <.L147>

00002328 <.L148>:
    2328:	9c c9 b3    	mov.b     #0x99, w12
    232a:	0c 00 37    	bra       0x2344 <.L147>

0000232c <.L150>:
    232c:	00 46 eb    	clr.b     w12
    232e:	1e 40 78    	mov.b     [w14], w0
    2330:	00 04 e0    	cp0.b     w0
    2332:	01 00 3a    	bra       NZ, 0x2336 <.L153>
    2334:	9c c9 b3    	mov.b     #0x99, w12

00002336 <.L153>:
    2336:	de 00 90    	mov.w     [w14+10], w1
    2338:	01 00 e0    	cp0.w     w1
    233a:	03 00 32    	bra       Z, 0x2342 <.L154>
    233c:	08 00 78    	mov.w     w8, w0
    233e:	01 00 01    	call      w1
    2340:	9c c9 b3    	mov.b     #0x99, w12

00002342 <.L154>:
    2342:	8d 06 e8    	inc.w     w13, w13

00002344 <.L147>:
    2344:	4e 01 90    	mov.w     [w14+8], w2
    2346:	02 00 01    	call      w2
    2348:	80 00 78    	mov.w     w0, w1
    234a:	1e 01 90    	mov.w     [w14+2], w2
    234c:	02 00 e9    	dec.w     w2, w0
    234e:	89 0f 50    	sub.w     w0, w9, [w15]
    2350:	03 00 32    	bra       Z, 0x2358 <.L144>
    2352:	89 04 e8    	inc.w     w9, w9
    2354:	01 00 e0    	cp0.w     w1
    2356:	cf ff 3a    	bra       NZ, 0x22f6 <.L143>

00002358 <.L144>:
    2358:	5e 00 90    	mov.w     [w14+10], w0
    235a:	00 00 e0    	cp0.w     w0
    235c:	04 00 3a    	bra       NZ, 0x2366 <.L160>
    235e:	00 96 20    	mov.w     #0x960, w0
    2360:	01 00 20    	mov.w     #0x0, w1
    2362:	e9 12 07    	rcall     0x4936 <___delay32>
    2364:	05 00 37    	bra       0x2370 <.L162>

00002366 <.L160>:
    2366:	90 c9 b3    	mov.b     #0x99, w0
    2368:	5d 02 07    	rcall     0x2824 <_as3993SingleCommand>
    236a:	00 08 20    	mov.w     #0x80, w0
    236c:	1f 03 07    	rcall     0x29ac <_as3993WaitForResponse>
    236e:	f2 3d ef    	clr.w     0x1df2

00002370 <.L162>:
    2370:	0d 00 78    	mov.w     w13, w0
    2372:	4f 06 be    	mov.d     [--w15], w12
    2374:	4f 05 be    	mov.d     [--w15], w10
    2376:	4f 04 be    	mov.d     [--w15], w8
    2378:	00 80 fa    	ulnk      
    237a:	00 00 06    	return    

0000237c <_gen2SearchForTagsAutoAck>:
    237c:	0c 00 fa    	lnk       #0xc
    237e:	88 9f be    	mov.d     w8, [w15++]
    2380:	8a 9f be    	mov.d     w10, [w15++]
    2382:	8c 9f be    	mov.d     w12, [w15++]
    2384:	20 07 98    	mov.w     w0, [w14+4]
    2386:	81 45 78    	mov.b     w1, w11
    2388:	62 47 98    	mov.b     w2, [w14+6]
    238a:	43 07 98    	mov.w     w3, [w14+8]
    238c:	04 05 78    	mov.w     w4, w10
    238e:	56 07 98    	mov.w     w6, [w14+10]
    2390:	90 c9 b3    	mov.b     #0x99, w0
    2392:	00 4f 78    	mov.b     w0, [w14]
    2394:	05 00 e0    	cp0.w     w5
    2396:	02 00 3a    	bra       NZ, 0x239c <.L169>
    2398:	80 40 eb    	clr.b     w1
    239a:	01 4f 78    	mov.b     w1, [w14]

0000239c <.L169>:
    239c:	5e 01 90    	mov.w     [w14+10], w2
    239e:	02 00 e0    	cp0.w     w2
    23a0:	03 00 32    	bra       Z, 0x23a8 <.L170>
    23a2:	00 40 eb    	clr.b     w0
    23a4:	00 4f 78    	mov.b     w0, [w14]
    23a6:	1a 00 20    	mov.w     #0x1, w10

000023a8 <.L170>:
    23a8:	10 c0 b3    	mov.b     #0x1, w0
    23aa:	c0 04 07    	rcall     0x2d2c <_as3993AntennaPower>
    23ac:	42 d6 21    	mov.w     #0x1d64, w2
    23ae:	21 c0 b3    	mov.b     #0x2, w1
    23b0:	70 c3 b3    	mov.b     #0x37, w0
    23b2:	51 02 07    	rcall     0x2856 <_as3993ContinuousRead>
    23b4:	f2 3d ef    	clr.w     0x1df2
    23b6:	10 c0 b3    	mov.b     #0x1, w0
    23b8:	67 02 07    	rcall     0x2888 <_as3993SingleRead>
    23ba:	f1 cc b3    	mov.b     #0xcf, w1
    23bc:	01 40 60    	and.b     w0, w1, w0
    23be:	0a 00 e0    	cp0.w     w10
    23c0:	03 00 32    	bra       Z, 0x23c8 <.L172>
    23c2:	80 40 78    	mov.b     w0, w1
    23c4:	01 54 a0    	bset.b    w1, #0x5
    23c6:	02 00 37    	bra       0x23cc <.L174>

000023c8 <.L172>:
    23c8:	80 40 78    	mov.b     w0, w1
    23ca:	01 44 a0    	bset.b    w1, #0x4

000023cc <.L174>:
    23cc:	10 c0 b3    	mov.b     #0x1, w0
    23ce:	92 02 07    	rcall     0x28f4 <_as3993SingleWrite>
    23d0:	0b 04 e0    	cp0.b     w11
    23d2:	0a 00 32    	bra       Z, 0x23e8 <.L175>
    23d4:	2e 00 90    	mov.w     [w14+4], w0
    23d6:	00 41 eb    	clr.b     w2
    23d8:	82 40 78    	mov.b     w2, w1

000023da <.L177>:
    23da:	01 48 78    	mov.b     w1, [w0]
    23dc:	11 40 98    	mov.b     w1, [w0+1]
    23de:	41 60 98    	mov.b     w1, [w0+36]
    23e0:	02 41 e8    	inc.b     w2, w2
    23e2:	60 03 b0    	add.w     #0x36, w0
    23e4:	82 cf 55    	sub.b     w11, w2, [w15]
    23e6:	f9 ff 3a    	bra       NZ, 0x23da <.L177>

000023e8 <.L175>:
    23e8:	ee 40 90    	mov.b     [w14+6], w1
    23ea:	01 81 fb    	ze        w1, w2
    23ec:	10 00 20    	mov.w     #0x1, w0
    23ee:	01 00 20    	mov.w     #0x0, w1

000023f0 <.LB1561>:
    23f0:	02 01 e9    	dec.w     w2, w2
    23f2:	03 00 33    	bra       N, 0x23fa <.LE1561>
    23f4:	00 00 40    	add.w     w0, w0, w0
    23f6:	81 80 48    	addc.w    w1, w1, w1
    23f8:	fb ff 37    	bra       0x23f0 <.LB1561>

000023fa <.LE1561>:
    23fa:	10 07 98    	mov.w     w0, [w14+2]
    23fc:	00 06 eb    	clr.w     w12
    23fe:	8d c9 b3    	mov.b     #0x98, w13
    2400:	8c 04 78    	mov.w     w12, w9

00002402 <.L178>:
    2402:	0b 80 fb    	ze        w11, w0
    2404:	80 0f 56    	sub.w     w12, w0, [w15]
    2406:	2c 00 31    	bra       C, 0x2460 <.L179>
    2408:	60 03 20    	mov.w     #0x36, w0
    240a:	00 e0 b9    	mul.ss    w12, w0, w0
    240c:	2e 01 90    	mov.w     [w14+4], w2
    240e:	00 04 41    	add.w     w2, w0, w8
    2410:	8a 01 ea    	neg.w     w10, w3
    2412:	8a 81 71    	ior.w     w3, w10, w3
    2414:	cf 19 de    	lsr.w     w3, #0xf, w3
    2416:	1e 42 78    	mov.b     [w14], w4
    2418:	e1 81 11    	subr.w    w3, #0x1, w3
    241a:	6e 41 90    	mov.b     [w14+6], w2
    241c:	8d 40 78    	mov.b     w13, w1
    241e:	08 00 78    	mov.w     w8, w0
    2420:	27 fd 07    	rcall     0x1e70 <_gen2SlotAutoAck>
    2422:	e1 4f 40    	add.b     w0, #0x1, [w15]
    2424:	13 00 35    	bra       LT, 0x244c <.L182>
    2426:	00 04 e0    	cp0.b     w0
    2428:	03 00 34    	bra       LE, 0x2430 <.L183>
    242a:	e1 4f 50    	sub.b     w0, #0x1, [w15]
    242c:	0f 00 3a    	bra       NZ, 0x244c <.L182>
    242e:	02 00 37    	bra       0x2434 <.L184>

00002430 <.L183>:
    2430:	9d c9 b3    	mov.b     #0x99, w13
    2432:	0c 00 37    	bra       0x244c <.L182>

00002434 <.L184>:
    2434:	80 46 eb    	clr.b     w13
    2436:	1e 40 78    	mov.b     [w14], w0
    2438:	00 04 e0    	cp0.b     w0
    243a:	01 00 3a    	bra       NZ, 0x243e <.L187>
    243c:	9d c9 b3    	mov.b     #0x99, w13

0000243e <.L187>:
    243e:	de 00 90    	mov.w     [w14+10], w1
    2440:	01 00 e0    	cp0.w     w1
    2442:	03 00 32    	bra       Z, 0x244a <.L188>
    2444:	08 00 78    	mov.w     w8, w0
    2446:	01 00 01    	call      w1
    2448:	9d c9 b3    	mov.b     #0x99, w13

0000244a <.L188>:
    244a:	0c 06 e8    	inc.w     w12, w12

0000244c <.L182>:
    244c:	4e 01 90    	mov.w     [w14+8], w2
    244e:	02 00 01    	call      w2
    2450:	80 00 78    	mov.w     w0, w1
    2452:	1e 01 90    	mov.w     [w14+2], w2
    2454:	02 00 e9    	dec.w     w2, w0
    2456:	89 0f 50    	sub.w     w0, w9, [w15]
    2458:	03 00 32    	bra       Z, 0x2460 <.L179>
    245a:	89 04 e8    	inc.w     w9, w9
    245c:	01 00 e0    	cp0.w     w1
    245e:	d1 ff 3a    	bra       NZ, 0x2402 <.L178>

00002460 <.L179>:
    2460:	10 c0 b3    	mov.b     #0x1, w0
    2462:	12 02 07    	rcall     0x2888 <_as3993SingleRead>
    2464:	f1 cc b3    	mov.b     #0xcf, w1
    2466:	81 40 60    	and.b     w0, w1, w1
    2468:	10 c0 b3    	mov.b     #0x1, w0
    246a:	44 02 07    	rcall     0x28f4 <_as3993SingleWrite>
    246c:	5e 00 90    	mov.w     [w14+10], w0
    246e:	00 00 e0    	cp0.w     w0
    2470:	04 00 3a    	bra       NZ, 0x247a <.L191>
    2472:	00 96 20    	mov.w     #0x960, w0
    2474:	01 00 20    	mov.w     #0x0, w1
    2476:	5f 12 07    	rcall     0x4936 <___delay32>
    2478:	05 00 37    	bra       0x2484 <.L193>

0000247a <.L191>:
    247a:	90 c9 b3    	mov.b     #0x99, w0
    247c:	d3 01 07    	rcall     0x2824 <_as3993SingleCommand>
    247e:	00 08 20    	mov.w     #0x80, w0
    2480:	95 02 07    	rcall     0x29ac <_as3993WaitForResponse>
    2482:	f2 3d ef    	clr.w     0x1df2

00002484 <.L193>:
    2484:	0c 00 78    	mov.w     w12, w0
    2486:	4f 06 be    	mov.d     [--w15], w12
    2488:	4f 05 be    	mov.d     [--w15], w10
    248a:	4f 04 be    	mov.d     [--w15], w8
    248c:	00 80 fa    	ulnk      
    248e:	00 00 06    	return    

00002490 <_gen2Configure>:
    2490:	0a 00 fa    	lnk       #0xa
    2492:	80 00 78    	mov.w     w0, w1
    2494:	12 c0 b3    	mov.b     #0x1, w2
    2496:	02 00 78    	mov.w     w2, w0
    2498:	97 fd b7    	mov.b     WREG, 0x1d97
    249a:	00 d9 21    	mov.w     #0x1d90, w0
    249c:	06 00 09    	repeat    #0x6
    249e:	31 58 78    	mov.b     [w1++], [w0++]
    24a0:	71 00 b1    	sub.w     #0x7, w1
    24a2:	20 d9 21    	mov.w     #0x1d92, w0
    24a4:	90 4f 11    	subr.b    w2, [w0], [w15]
    24a6:	02 00 3e    	bra       GTU, 0x24ac <.L198>
    24a8:	02 00 78    	mov.w     w2, w0
    24aa:	93 fd b7    	mov.b     WREG, 0x1d93

000024ac <.L198>:
    24ac:	11 40 90    	mov.b     [w1+1], w0
    24ae:	e8 4f 50    	sub.b     w0, #0x8, [w15]
    24b0:	62 00 32    	bra       Z, 0x2576 <.L203>
    24b2:	05 00 3e    	bra       GTU, 0x24be <.L207>
    24b4:	00 04 e0    	cp0.b     w0
    24b6:	9d 00 32    	bra       Z, 0x25f2 <.L201>
    24b8:	e6 4f 50    	sub.b     w0, #0x6, [w15]
    24ba:	ce 00 3a    	bra       NZ, 0x2658 <.L231>
    24bc:	7b 00 37    	bra       0x25b4 <.L202>

000024be <.L207>:
    24be:	ec 4f 50    	sub.b     w0, #0xc, [w15]
    24c0:	1b 00 32    	bra       Z, 0x24f8 <.L205>
    24c2:	ef 4f 50    	sub.b     w0, #0xf, [w15]
    24c4:	03 00 32    	bra       Z, 0x24cc <.L206>
    24c6:	e9 4f 50    	sub.b     w0, #0x9, [w15]
    24c8:	c7 00 3a    	bra       NZ, 0x2658 <.L231>
    24ca:	36 00 37    	bra       0x2538 <.L204>

000024cc <.L206>:
    24cc:	00 c2 b3    	mov.b     #0x20, w0
    24ce:	00 4f 78    	mov.b     w0, [w14]
    24d0:	00 cf b3    	mov.b     #0xf0, w0
    24d2:	10 47 98    	mov.b     w0, [w14+1]
    24d4:	11 c0 b3    	mov.b     #0x1, w1
    24d6:	21 47 98    	mov.b     w1, [w14+2]
    24d8:	d0 c4 b3    	mov.b     #0x4d, w0
    24da:	30 47 98    	mov.b     w0, [w14+3]
    24dc:	30 c0 b3    	mov.b     #0x3, w0
    24de:	40 47 98    	mov.b     w0, [w14+4]
    24e0:	20 c0 b3    	mov.b     #0x2, w0
    24e2:	50 47 98    	mov.b     w0, [w14+5]
    24e4:	61 47 98    	mov.b     w1, [w14+6]
    24e6:	20 d9 21    	mov.w     #0x1d92, w0
    24e8:	90 cf 10    	subr.b    w1, [w0], [w15]
    24ea:	03 00 36    	bra       LEU, 0x24f2 <.L208>
    24ec:	40 c0 b3    	mov.b     #0x4, w0
    24ee:	70 47 98    	mov.b     w0, [w14+7]
    24f0:	92 00 37    	bra       0x2616 <.L210>

000024f2 <.L208>:
    24f2:	70 c0 b3    	mov.b     #0x7, w0
    24f4:	70 47 98    	mov.b     w0, [w14+7]
    24f6:	8f 00 37    	bra       0x2616 <.L210>

000024f8 <.L205>:
    24f8:	00 c2 b3    	mov.b     #0x20, w0
    24fa:	00 4f 78    	mov.b     w0, [w14]
    24fc:	00 cc b3    	mov.b     #0xc0, w0
    24fe:	10 47 98    	mov.b     w0, [w14+1]
    2500:	90 5d e2    	cp0.b     0x1d90
    2502:	06 00 3a    	bra       NZ, 0x2510 <.L211>
    2504:	00 40 eb    	clr.b     w0
    2506:	97 fd b7    	mov.b     WREG, 0x1d97
    2508:	20 47 98    	mov.b     w0, [w14+2]
    250a:	a0 cf b3    	mov.b     #0xfa, w0
    250c:	30 47 98    	mov.b     w0, [w14+3]
    250e:	04 00 37    	bra       0x2518 <.L213>

00002510 <.L211>:
    2510:	20 c0 b3    	mov.b     #0x2, w0
    2512:	20 47 98    	mov.b     w0, [w14+2]
    2514:	b0 c9 b3    	mov.b     #0x9b, w0
    2516:	30 47 98    	mov.b     w0, [w14+3]

00002518 <.L213>:
    2518:	40 c0 b3    	mov.b     #0x4, w0
    251a:	40 47 98    	mov.b     w0, [w14+4]
    251c:	30 c0 b3    	mov.b     #0x3, w0
    251e:	50 47 98    	mov.b     w0, [w14+5]
    2520:	20 c0 b3    	mov.b     #0x2, w0
    2522:	60 47 98    	mov.b     w0, [w14+6]
    2524:	20 d9 21    	mov.w     #0x1d92, w0
    2526:	11 c0 b3    	mov.b     #0x1, w1
    2528:	90 cf 10    	subr.b    w1, [w0], [w15]
    252a:	03 00 36    	bra       LEU, 0x2532 <.L214>
    252c:	40 c2 b3    	mov.b     #0x24, w0
    252e:	70 47 98    	mov.b     w0, [w14+7]
    2530:	72 00 37    	bra       0x2616 <.L210>

00002532 <.L214>:
    2532:	70 c2 b3    	mov.b     #0x27, w0
    2534:	70 47 98    	mov.b     w0, [w14+7]
    2536:	6f 00 37    	bra       0x2616 <.L210>

00002538 <.L204>:
    2538:	00 c2 b3    	mov.b     #0x20, w0
    253a:	00 4f 78    	mov.b     w0, [w14]
    253c:	00 c9 b3    	mov.b     #0x90, w0
    253e:	10 47 98    	mov.b     w0, [w14+1]
    2540:	90 5d e2    	cp0.b     0x1d90
    2542:	06 00 3a    	bra       NZ, 0x2550 <.L216>
    2544:	97 7d ef    	clr.b     0x1d97
    2546:	10 c0 b3    	mov.b     #0x1, w0
    2548:	20 47 98    	mov.b     w0, [w14+2]
    254a:	90 c3 b3    	mov.b     #0x39, w0
    254c:	30 47 98    	mov.b     w0, [w14+3]
    254e:	04 00 37    	bra       0x2558 <.L218>

00002550 <.L216>:
    2550:	30 c0 b3    	mov.b     #0x3, w0
    2552:	20 47 98    	mov.b     w0, [w14+2]
    2554:	10 c4 b3    	mov.b     #0x41, w0
    2556:	30 47 98    	mov.b     w0, [w14+3]

00002558 <.L218>:
    2558:	50 c0 b3    	mov.b     #0x5, w0
    255a:	40 47 98    	mov.b     w0, [w14+4]
    255c:	50 47 98    	mov.b     w0, [w14+5]
    255e:	40 c0 b3    	mov.b     #0x4, w0
    2560:	60 47 98    	mov.b     w0, [w14+6]
    2562:	20 d9 21    	mov.w     #0x1d92, w0
    2564:	12 c0 b3    	mov.b     #0x1, w2
    2566:	90 4f 11    	subr.b    w2, [w0], [w15]
    2568:	03 00 36    	bra       LEU, 0x2570 <.L219>
    256a:	40 c3 b3    	mov.b     #0x34, w0
    256c:	70 47 98    	mov.b     w0, [w14+7]
    256e:	53 00 37    	bra       0x2616 <.L210>

00002570 <.L219>:
    2570:	70 c3 b3    	mov.b     #0x37, w0
    2572:	70 47 98    	mov.b     w0, [w14+7]
    2574:	50 00 37    	bra       0x2616 <.L210>

00002576 <.L203>:
    2576:	00 c2 b3    	mov.b     #0x20, w0
    2578:	00 4f 78    	mov.b     w0, [w14]
    257a:	00 c8 b3    	mov.b     #0x80, w0
    257c:	10 47 98    	mov.b     w0, [w14+1]
    257e:	90 5d e2    	cp0.b     0x1d90
    2580:	06 00 3a    	bra       NZ, 0x258e <.L221>
    2582:	97 7d ef    	clr.b     0x1d97
    2584:	10 c0 b3    	mov.b     #0x1, w0
    2586:	20 47 98    	mov.b     w0, [w14+2]
    2588:	70 c7 b3    	mov.b     #0x77, w0
    258a:	30 47 98    	mov.b     w0, [w14+3]
    258c:	04 00 37    	bra       0x2596 <.L223>

0000258e <.L221>:
    258e:	30 c0 b3    	mov.b     #0x3, w0
    2590:	20 47 98    	mov.b     w0, [w14+2]
    2592:	80 ce b3    	mov.b     #0xe8, w0
    2594:	30 47 98    	mov.b     w0, [w14+3]

00002596 <.L223>:
    2596:	60 c0 b3    	mov.b     #0x6, w0
    2598:	40 47 98    	mov.b     w0, [w14+4]
    259a:	50 c0 b3    	mov.b     #0x5, w0
    259c:	50 47 98    	mov.b     w0, [w14+5]
    259e:	60 47 98    	mov.b     w0, [w14+6]
    25a0:	20 d9 21    	mov.w     #0x1d92, w0
    25a2:	13 c0 b3    	mov.b     #0x1, w3
    25a4:	90 cf 11    	subr.b    w3, [w0], [w15]
    25a6:	03 00 36    	bra       LEU, 0x25ae <.L224>
    25a8:	40 c3 b3    	mov.b     #0x34, w0
    25aa:	70 47 98    	mov.b     w0, [w14+7]
    25ac:	34 00 37    	bra       0x2616 <.L210>

000025ae <.L224>:
    25ae:	70 c3 b3    	mov.b     #0x37, w0
    25b0:	70 47 98    	mov.b     w0, [w14+7]
    25b2:	31 00 37    	bra       0x2616 <.L210>

000025b4 <.L202>:
    25b4:	00 c2 b3    	mov.b     #0x20, w0
    25b6:	00 4f 78    	mov.b     w0, [w14]
    25b8:	00 c6 b3    	mov.b     #0x60, w0
    25ba:	10 47 98    	mov.b     w0, [w14+1]
    25bc:	00 d9 21    	mov.w     #0x1d90, w0
    25be:	11 c0 b3    	mov.b     #0x1, w1
    25c0:	90 cf 10    	subr.b    w1, [w0], [w15]
    25c2:	05 00 3a    	bra       NZ, 0x25ce <.L226>
    25c4:	97 7d ef    	clr.b     0x1d97
    25c6:	21 47 98    	mov.b     w1, [w14+2]
    25c8:	40 cf b3    	mov.b     #0xf4, w0
    25ca:	30 47 98    	mov.b     w0, [w14+3]
    25cc:	04 00 37    	bra       0x25d6 <.L228>

000025ce <.L226>:
    25ce:	50 c0 b3    	mov.b     #0x5, w0
    25d0:	20 47 98    	mov.b     w0, [w14+2]
    25d2:	50 c3 b3    	mov.b     #0x35, w0
    25d4:	30 47 98    	mov.b     w0, [w14+3]

000025d6 <.L228>:
    25d6:	a0 c0 b3    	mov.b     #0xa, w0
    25d8:	40 47 98    	mov.b     w0, [w14+4]
    25da:	50 c0 b3    	mov.b     #0x5, w0
    25dc:	50 47 98    	mov.b     w0, [w14+5]
    25de:	80 c0 b3    	mov.b     #0x8, w0
    25e0:	60 47 98    	mov.b     w0, [w14+6]
    25e2:	92 5d e2    	cp0.b     0x1d92
    25e4:	03 00 32    	bra       Z, 0x25ec <.L229>
    25e6:	f0 c3 b3    	mov.b     #0x3f, w0
    25e8:	70 47 98    	mov.b     w0, [w14+7]
    25ea:	15 00 37    	bra       0x2616 <.L210>

000025ec <.L229>:
    25ec:	f0 cb b3    	mov.b     #0xbf, w0
    25ee:	70 47 98    	mov.b     w0, [w14+7]
    25f0:	12 00 37    	bra       0x2616 <.L210>

000025f2 <.L201>:
    25f2:	00 c3 b3    	mov.b     #0x30, w0
    25f4:	00 4f 78    	mov.b     w0, [w14]
    25f6:	80 40 eb    	clr.b     w1
    25f8:	11 47 98    	mov.b     w1, [w14+1]
    25fa:	70 c0 b3    	mov.b     #0x7, w0
    25fc:	20 47 98    	mov.b     w0, [w14+2]
    25fe:	00 cd b3    	mov.b     #0xd0, w0
    2600:	30 47 98    	mov.b     w0, [w14+3]
    2602:	f0 c3 b3    	mov.b     #0x3f, w0
    2604:	40 47 98    	mov.b     w0, [w14+4]
    2606:	c0 c0 b3    	mov.b     #0xc, w0
    2608:	50 47 98    	mov.b     w0, [w14+5]
    260a:	78 40 40    	add.b     w0, #0x18, w0
    260c:	60 47 98    	mov.b     w0, [w14+6]
    260e:	00 c0 eb    	setm.b    w0
    2610:	70 47 98    	mov.b     w0, [w14+7]
    2612:	01 00 78    	mov.w     w1, w0
    2614:	97 fd b7    	mov.b     WREG, 0x1d97

00002616 <.L210>:
    2616:	90 dd bf    	mov.b     0x1d90, WREG
    2618:	1e 4f 70    	ior.b     w0, [w14], [w14]
    261a:	9e 40 90    	mov.b     [w14+1], w1
    261c:	00 cf b3    	mov.b     #0xf0, w0
    261e:	80 c0 60    	and.b     w1, w0, w1
    2620:	22 d9 21    	mov.w     #0x1d92, w2
    2622:	92 c0 70    	ior.b     w1, [w2], w1
    2624:	93 dd bf    	mov.b     0x1d93, WREG
    2626:	43 00 dd    	sl.w      w0, #0x3, w0
    2628:	01 40 70    	ior.b     w0, w1, w0
    262a:	10 47 98    	mov.b     w0, [w14+1]
    262c:	5e 40 90    	mov.b     [w14+5], w0
    262e:	98 fd b7    	mov.b     WREG, 0x1d98
    2630:	82 c0 b3    	mov.b     #0x8, w2
    2632:	8e 00 78    	mov.w     w14, w1
    2634:	20 c0 b3    	mov.b     #0x2, w0
    2636:	46 01 07    	rcall     0x28c4 <_as3993ContinuousWrite>
    2638:	c0 c3 b3    	mov.b     #0x3c, w0
    263a:	26 01 07    	rcall     0x2888 <_as3993SingleRead>
    263c:	c1 cf b3    	mov.b     #0xfc, w1
    263e:	01 40 60    	and.b     w0, w1, w0
    2640:	52 d9 21    	mov.w     #0x1d95, w2
    2642:	92 40 70    	ior.b     w0, [w2], w1
    2644:	01 4f 78    	mov.b     w1, [w14]
    2646:	c0 c3 b3    	mov.b     #0x3c, w0
    2648:	55 01 07    	rcall     0x28f4 <_as3993SingleWrite>
    264a:	10 c0 b3    	mov.b     #0x1, w0
    264c:	1d 01 07    	rcall     0x2888 <_as3993SingleRead>
    264e:	81 cf b3    	mov.b     #0xf8, w1
    2650:	81 40 60    	and.b     w0, w1, w1
    2652:	01 4f 78    	mov.b     w1, [w14]
    2654:	10 c0 b3    	mov.b     #0x1, w0
    2656:	4e 01 07    	rcall     0x28f4 <_as3993SingleWrite>

00002658 <.L231>:
    2658:	00 80 fa    	ulnk      
    265a:	00 00 06    	return    

0000265c <_gen2Open>:
    265c:	00 00 fa    	lnk       #0x0
    265e:	18 ff 07    	rcall     0x2490 <_gen2Configure>
    2660:	00 80 fa    	ulnk      
    2662:	00 00 06    	return    

00002664 <_gen2Close>:
    2664:	00 00 fa    	lnk       #0x0
    2666:	00 80 fa    	ulnk      
    2668:	00 00 06    	return    

0000266a <_getGen2IntConfig>:
    266a:	00 00 fa    	lnk       #0x0
    266c:	00 d9 21    	mov.w     #0x1d90, w0
    266e:	00 80 fa    	ulnk      
    2670:	00 00 06    	return    

00002672 <_as3993Initialize>:
    2672:	04 00 fa    	lnk       #0x4
    2674:	88 9f be    	mov.d     w8, [w15++]
    2676:	8a 1f 78    	mov.w     w10, [w15++]
    2678:	8c 9f be    	mov.d     w12, [w15++]
    267a:	00 06 be    	mov.d     w0, w12
    267c:	f4 02 07    	rcall     0x2c66 <_as3993ResetDoNotPreserveRegisters>
    267e:	58 c5 b3    	mov.b     #0x55, w8
    2680:	08 4f 78    	mov.b     w8, [w14]
    2682:	a9 ca b3    	mov.b     #0xaa, w9
    2684:	19 47 98    	mov.b     w9, [w14+1]
    2686:	00 c0 eb    	setm.b    w0
    2688:	20 47 98    	mov.b     w0, [w14+2]
    268a:	00 40 eb    	clr.b     w0
    268c:	30 47 98    	mov.b     w0, [w14+3]
    268e:	42 c0 b3    	mov.b     #0x4, w2
    2690:	8e 00 78    	mov.w     w14, w1
    2692:	30 c1 b3    	mov.b     #0x13, w0
    2694:	17 01 07    	rcall     0x28c4 <_as3993ContinuousWrite>
    2696:	30 33 23    	mov.w     #0x3333, w0
    2698:	31 33 23    	mov.w     #0x3333, w1
    269a:	00 8f be    	mov.d     w0, [w14]
    269c:	0e 01 78    	mov.w     w14, w2
    269e:	41 c0 b3    	mov.b     #0x4, w1
    26a0:	30 c1 b3    	mov.b     #0x13, w0
    26a2:	d9 00 07    	rcall     0x2856 <_as3993ContinuousRead>
    26a4:	9e 4f 14    	subr.b    w8, [w14], [w15]
    26a6:	8a 00 3a    	bra       NZ, 0x27bc <.L2>
    26a8:	1e 45 90    	mov.b     [w14+1], w10
    26aa:	89 4f 55    	sub.b     w10, w9, [w15]
    26ac:	87 00 3a    	bra       NZ, 0x27bc <.L2>
    26ae:	2e 40 90    	mov.b     [w14+2], w0
    26b0:	e1 4f 40    	add.b     w0, #0x1, [w15]
    26b2:	84 00 3a    	bra       NZ, 0x27bc <.L2>
    26b4:	3e 40 90    	mov.b     [w14+3], w0
    26b6:	00 04 e0    	cp0.b     w0
    26b8:	81 00 3a    	bra       NZ, 0x27bc <.L2>
    26ba:	d5 02 07    	rcall     0x2c66 <_as3993ResetDoNotPreserveRegisters>
    26bc:	0e 01 78    	mov.w     w14, w2
    26be:	41 c0 b3    	mov.b     #0x4, w1
    26c0:	30 c1 b3    	mov.b     #0x13, w0
    26c2:	c9 00 07    	rcall     0x2856 <_as3993ContinuousRead>
    26c4:	9e 4f 14    	subr.b    w8, [w14], [w15]
    26c6:	7c 00 32    	bra       Z, 0x27c0 <.L7>
    26c8:	1e 40 90    	mov.b     [w14+1], w0
    26ca:	8a 4f 50    	sub.b     w0, w10, [w15]
    26cc:	79 00 32    	bra       Z, 0x27c0 <.L7>
    26ce:	2e 40 90    	mov.b     [w14+2], w0
    26d0:	e1 4f 40    	add.b     w0, #0x1, [w15]
    26d2:	76 00 32    	bra       Z, 0x27c0 <.L7>
    26d4:	3e 40 90    	mov.b     [w14+3], w0
    26d6:	00 04 e0    	cp0.b     w0
    26d8:	73 00 32    	bra       Z, 0x27c0 <.L7>
    26da:	00 e8 23    	mov.w     #0x3e80, w0
    26dc:	01 00 20    	mov.w     #0x0, w1
    26de:	2b 11 07    	rcall     0x4936 <___delay32>
    26e0:	01 c2 b3    	mov.b     #0x20, w1
    26e2:	50 c3 b3    	mov.b     #0x35, w0
    26e4:	07 01 07    	rcall     0x28f4 <_as3993SingleWrite>
    26e6:	31 c0 b3    	mov.b     #0x3, w1
    26e8:	d0 c3 b3    	mov.b     #0x3d, w0
    26ea:	04 01 07    	rcall     0x28f4 <_as3993SingleWrite>
    26ec:	00 c9 b3    	mov.b     #0x90, w0
    26ee:	9a 00 07    	rcall     0x2824 <_as3993SingleCommand>
    26f0:	42 c0 b3    	mov.b     #0x4, w2
    26f2:	8e 00 78    	mov.w     w14, w1
    26f4:	f0 c3 b3    	mov.b     #0x3f, w0
    26f6:	e6 00 07    	rcall     0x28c4 <_as3993ContinuousWrite>
    26f8:	42 c0 b3    	mov.b     #0x4, w2
    26fa:	8e 00 78    	mov.w     w14, w1
    26fc:	f0 c3 b3    	mov.b     #0x3f, w0
    26fe:	e2 00 07    	rcall     0x28c4 <_as3993ContinuousWrite>
    2700:	42 c0 b3    	mov.b     #0x4, w2
    2702:	8e 00 78    	mov.w     w14, w1
    2704:	f0 c3 b3    	mov.b     #0x3f, w0
    2706:	de 00 07    	rcall     0x28c4 <_as3993ContinuousWrite>
    2708:	42 c0 b3    	mov.b     #0x4, w2
    270a:	8e 00 78    	mov.w     w14, w1
    270c:	f0 c3 b3    	mov.b     #0x3f, w0
    270e:	da 00 07    	rcall     0x28c4 <_as3993ContinuousWrite>
    2710:	42 c0 b3    	mov.b     #0x4, w2
    2712:	8e 00 78    	mov.w     w14, w1
    2714:	f0 c3 b3    	mov.b     #0x3f, w0
    2716:	d6 00 07    	rcall     0x28c4 <_as3993ContinuousWrite>
    2718:	42 c0 b3    	mov.b     #0x4, w2
    271a:	8e 00 78    	mov.w     w14, w1
    271c:	f0 c3 b3    	mov.b     #0x3f, w0
    271e:	d2 00 07    	rcall     0x28c4 <_as3993ContinuousWrite>
    2720:	00 02 20    	mov.w     #0x20, w0
    2722:	44 01 07    	rcall     0x29ac <_as3993WaitForResponse>
    2724:	31 00 20    	mov.w     #0x3, w1
    2726:	f2 bd ab    	btst.b    0x1df2, #0x5
    2728:	4c 00 32    	bra       Z, 0x27c2 <.L14>
    272a:	00 04 eb    	clr.w     w8
    272c:	98 ef 88    	mov.w     w8, 0x1df2
    272e:	9b 02 07    	rcall     0x2c66 <_as3993ResetDoNotPreserveRegisters>
    2730:	40 c8 b3    	mov.b     #0x84, w0
    2732:	78 00 07    	rcall     0x2824 <_as3993SingleCommand>
    2734:	21 c0 b3    	mov.b     #0x2, w1
    2736:	08 40 78    	mov.b     w8, w0
    2738:	dd 00 07    	rcall     0x28f4 <_as3993SingleWrite>
    273a:	88 40 78    	mov.b     w8, w1
    273c:	10 c0 b3    	mov.b     #0x1, w0
    273e:	da 00 07    	rcall     0x28f4 <_as3993SingleWrite>
    2740:	01 c3 b3    	mov.b     #0x30, w1
    2742:	20 c0 b3    	mov.b     #0x2, w0
    2744:	d7 00 07    	rcall     0x28f4 <_as3993SingleWrite>
    2746:	41 c5 b3    	mov.b     #0x54, w1
    2748:	70 c1 b3    	mov.b     #0x17, w0
    274a:	d4 00 07    	rcall     0x28f4 <_as3993SingleWrite>
    274c:	88 40 78    	mov.b     w8, w1
    274e:	00 c1 b3    	mov.b     #0x10, w0
    2750:	d1 00 07    	rcall     0x28f4 <_as3993SingleWrite>
    2752:	01 c8 b3    	mov.b     #0x80, w1
    2754:	d0 c0 b3    	mov.b     #0xd, w0
    2756:	ce 00 07    	rcall     0x28f4 <_as3993SingleWrite>
    2758:	b1 c1 b3    	mov.b     #0x1b, w1
    275a:	b0 c0 b3    	mov.b     #0xb, w0
    275c:	cb 00 07    	rcall     0x28f4 <_as3993SingleWrite>
    275e:	21 c2 b3    	mov.b     #0x22, w1
    2760:	c0 c0 b3    	mov.b     #0xc, w0
    2762:	c8 00 07    	rcall     0x28f4 <_as3993SingleWrite>
    2764:	00 c2 b3    	mov.b     #0x20, w0
    2766:	00 4f 78    	mov.b     w0, [w14]
    2768:	d0 cd b3    	mov.b     #0xdd, w0
    276a:	10 47 98    	mov.b     w0, [w14+1]
    276c:	10 c0 b3    	mov.b     #0x1, w0
    276e:	20 47 98    	mov.b     w0, [w14+2]
    2770:	32 c0 b3    	mov.b     #0x3, w2
    2772:	8e 00 78    	mov.w     w14, w1
    2774:	30 c1 b3    	mov.b     #0x13, w0
    2776:	a6 00 07    	rcall     0x28c4 <_as3993ContinuousWrite>
    2778:	51 c3 b3    	mov.b     #0x35, w1
    277a:	20 c1 b3    	mov.b     #0x12, w0
    277c:	bb 00 07    	rcall     0x28f4 <_as3993SingleWrite>
    277e:	88 40 78    	mov.b     w8, w1
    2780:	e0 c0 b3    	mov.b     #0xe, w0
    2782:	b8 00 07    	rcall     0x28f4 <_as3993SingleWrite>
    2784:	80 c0 eb    	setm.b    w1
    2786:	50 c3 b3    	mov.b     #0x35, w0
    2788:	b5 00 07    	rcall     0x28f4 <_as3993SingleWrite>
    278a:	71 c0 b3    	mov.b     #0x7, w1
    278c:	60 c3 b3    	mov.b     #0x36, w0
    278e:	b2 00 07    	rcall     0x28f4 <_as3993SingleWrite>
    2790:	01 c1 b3    	mov.b     #0x10, w1
    2792:	a0 c3 b3    	mov.b     #0x3a, w0
    2794:	af 00 07    	rcall     0x28f4 <_as3993SingleWrite>
    2796:	0c 01 be    	mov.d     w12, w2
    2798:	70 c1 b3    	mov.b     #0x17, w0
    279a:	6f 01 07    	rcall     0x2a7a <_as3993SetBaseFrequency>
    279c:	c0 cb b3    	mov.b     #0xbc, w0
    279e:	26 03 07    	rcall     0x2dec <_as3993SetSensitivity>
    27a0:	00 20 2e    	mov.w     #0xe200, w0
    27a2:	41 00 20    	mov.w     #0x4, w1
    27a4:	c8 10 07    	rcall     0x4936 <___delay32>
    27a6:	a0 c2 b3    	mov.b     #0x2a, w0
    27a8:	6f 00 07    	rcall     0x2888 <_as3993SingleRead>
    27aa:	00 41 78    	mov.b     w0, w2
    27ac:	63 00 61    	and.w     w2, #0x3, w0
    27ae:	41 00 20    	mov.w     #0x4, w1
    27b0:	08 00 32    	bra       Z, 0x27c2 <.L14>
    27b2:	51 00 20    	mov.w     #0x5, w1
    27b4:	02 18 a3    	btst.z    w2, #0x1
    27b6:	05 00 32    	bra       Z, 0x27c2 <.L14>
    27b8:	80 00 eb    	clr.w     w1
    27ba:	03 00 37    	bra       0x27c2 <.L14>

000027bc <.L2>:
    27bc:	11 00 20    	mov.w     #0x1, w1
    27be:	01 00 37    	bra       0x27c2 <.L14>

000027c0 <.L7>:
    27c0:	21 00 20    	mov.w     #0x2, w1

000027c2 <.L14>:
    27c2:	01 00 78    	mov.w     w1, w0
    27c4:	4f 06 be    	mov.d     [--w15], w12
    27c6:	4f 05 78    	mov.w     [--w15], w10
    27c8:	4f 04 be    	mov.d     [--w15], w8
    27ca:	00 80 fa    	ulnk      
    27cc:	00 00 06    	return    

000027ce <__INT1Interrupt>:
    27ce:	36 00 f8    	push      0x36
    27d0:	80 9f be    	mov.d     w0, [w15++]
    27d2:	82 9f be    	mov.d     w2, [w15++]
    27d4:	84 9f be    	mov.d     w4, [w15++]
    27d6:	86 9f be    	mov.d     w6, [w15++]
    27d8:	02 00 fa    	lnk       #0x2
    27da:	f4 5d e2    	cp0.b     0x1df4
    27dc:	03 00 32    	bra       Z, 0x27e4 <.L25>
    27de:	00 1e 20    	mov.w     #0x1e0, w0
    27e0:	01 00 20    	mov.w     #0x0, w1
    27e2:	a9 10 07    	rcall     0x4936 <___delay32>

000027e4 <.L25>:
    27e4:	86 80 a9    	bclr.b    0x86, #0x4
    27e6:	23 c0 b3    	mov.b     #0x2, w3
    27e8:	0e 01 78    	mov.w     w14, w2
    27ea:	11 c0 b3    	mov.b     #0x1, w1
    27ec:	50 df 21    	mov.w     #0x1df5, w0
    27ee:	3a 0f 07    	rcall     0x4664 <_writeReadAS3993Isr>
    27f0:	1e 80 fb    	ze        [w14], w0
    27f2:	9e 40 90    	mov.b     [w14+1], w1
    27f4:	c8 08 dd    	sl.w      w1, #0x8, w1
    27f6:	01 00 70    	ior.w     w0, w1, w0
    27f8:	f2 3d b7    	ior.w     0x1df2
    27fa:	cb c2 bf    	mov.b     0x2cb, WREG
    27fc:	00 68 a3    	btst.z    w0, #0x6
    27fe:	f2 ff 3a    	bra       NZ, 0x27e4 <.L25>
    2800:	00 80 fa    	ulnk      
    2802:	4f 03 be    	mov.d     [--w15], w6
    2804:	4f 02 be    	mov.d     [--w15], w4
    2806:	4f 01 be    	mov.d     [--w15], w2
    2808:	4f 00 be    	mov.d     [--w15], w0
    280a:	36 00 f9    	pop       0x36
    280c:	00 40 06    	retfie    

0000280e <_as3993ReadChipVersion>:
    280e:	00 00 fa    	lnk       #0x0
    2810:	30 c3 b3    	mov.b     #0x33, w0
    2812:	3a 00 07    	rcall     0x2888 <_as3993SingleRead>
    2814:	80 40 78    	mov.b     w0, w1
    2816:	00 c6 b3    	mov.b     #0x60, w0
    2818:	80 cf 50    	sub.b     w1, w0, [w15]
    281a:	01 00 36    	bra       LEU, 0x281e <.L29>
    281c:	f4 7d ef    	clr.b     0x1df4

0000281e <.L29>:
    281e:	01 80 fb    	ze        w1, w0
    2820:	00 80 fa    	ulnk      
    2822:	00 00 06    	return    

00002824 <_as3993SingleCommand>:
    2824:	02 00 fa    	lnk       #0x2
    2826:	00 4f 78    	mov.b     w0, [w14]
    2828:	96 80 a9    	bclr.b    0x96, #0x4
    282a:	15 c0 b3    	mov.b     #0x1, w5
    282c:	05 42 78    	mov.b     w5, w4
    282e:	80 41 eb    	clr.b     w3
    2830:	00 01 eb    	clr.w     w2
    2832:	85 40 78    	mov.b     w5, w1
    2834:	0e 00 78    	mov.w     w14, w0
    2836:	fd 0e 07    	rcall     0x4632 <_writeReadAS3993>
    2838:	96 80 a8    	bset.b    0x96, #0x4
    283a:	00 80 fa    	ulnk      
    283c:	00 00 06    	return    

0000283e <_as3993SingleWriteNoStop>:
    283e:	02 00 fa    	lnk       #0x2
    2840:	00 4f 78    	mov.b     w0, [w14]
    2842:	11 47 98    	mov.b     w1, [w14+1]
    2844:	15 c0 b3    	mov.b     #0x1, w5
    2846:	00 42 eb    	clr.b     w4
    2848:	84 41 78    	mov.b     w4, w3
    284a:	00 01 eb    	clr.w     w2
    284c:	21 c0 b3    	mov.b     #0x2, w1
    284e:	0e 00 78    	mov.w     w14, w0
    2850:	f0 0e 07    	rcall     0x4632 <_writeReadAS3993>
    2852:	00 80 fa    	ulnk      
    2854:	00 00 06    	return    

00002856 <_as3993ContinuousRead>:
    2856:	02 00 fa    	lnk       #0x2
    2858:	00 4f 78    	mov.b     w0, [w14]
    285a:	96 80 a9    	bclr.b    0x96, #0x4
    285c:	1e 64 a0    	bset.b    [w14], #0x6
    285e:	15 c0 b3    	mov.b     #0x1, w5
    2860:	24 c0 b3    	mov.b     #0x2, w4
    2862:	81 41 78    	mov.b     w1, w3
    2864:	85 40 78    	mov.b     w5, w1
    2866:	0e 00 78    	mov.w     w14, w0
    2868:	e4 0e 07    	rcall     0x4632 <_writeReadAS3993>
    286a:	96 80 a8    	bset.b    0x96, #0x4
    286c:	00 80 fa    	ulnk      
    286e:	00 00 06    	return    

00002870 <_as3993FifoRead>:
    2870:	00 00 fa    	lnk       #0x0
    2872:	01 01 78    	mov.w     w1, w2
    2874:	96 80 a9    	bclr.b    0x96, #0x4
    2876:	15 c0 b3    	mov.b     #0x1, w5
    2878:	24 c0 b3    	mov.b     #0x2, w4
    287a:	80 41 78    	mov.b     w0, w3
    287c:	85 40 78    	mov.b     w5, w1
    287e:	60 df 21    	mov.w     #0x1df6, w0
    2880:	d8 0e 07    	rcall     0x4632 <_writeReadAS3993>
    2882:	96 80 a8    	bset.b    0x96, #0x4
    2884:	00 80 fa    	ulnk      
    2886:	00 00 06    	return    

00002888 <_as3993SingleRead>:
    2888:	04 00 fa    	lnk       #0x4
    288a:	20 47 98    	mov.b     w0, [w14+2]
    288c:	96 80 a9    	bclr.b    0x96, #0x4
    288e:	d1 cd b3    	mov.b     #0xdd, w1
    2890:	01 40 40    	add.b     w0, w1, w0
    2892:	e3 4f 50    	sub.b     w0, #0x3, [w15]
    2894:	09 00 3e    	bra       GTU, 0x28a8 <.L41>
    2896:	0e 00 78    	mov.w     w14, w0
    2898:	01 cb b3    	mov.b     #0xb0, w1
    289a:	01 68 78    	mov.b     w1, [++w0]
    289c:	15 c0 b3    	mov.b     #0x1, w5
    289e:	00 42 eb    	clr.b     w4
    28a0:	84 41 78    	mov.b     w4, w3
    28a2:	00 01 eb    	clr.w     w2
    28a4:	85 40 78    	mov.b     w5, w1
    28a6:	c5 0e 07    	rcall     0x4632 <_writeReadAS3993>

000028a8 <.L41>:
    28a8:	2e 40 90    	mov.b     [w14+2], w0
    28aa:	00 64 a0    	bset.b    w0, #0x6
    28ac:	20 47 98    	mov.b     w0, [w14+2]
    28ae:	15 c0 b3    	mov.b     #0x1, w5
    28b0:	05 42 78    	mov.b     w5, w4
    28b2:	85 41 78    	mov.b     w5, w3
    28b4:	0e 01 78    	mov.w     w14, w2
    28b6:	85 40 78    	mov.b     w5, w1
    28b8:	0e 80 e8    	inc2.w    w14, w0
    28ba:	bb 0e 07    	rcall     0x4632 <_writeReadAS3993>
    28bc:	96 80 a8    	bset.b    0x96, #0x4
    28be:	1e 80 fb    	ze        [w14], w0
    28c0:	00 80 fa    	ulnk      
    28c2:	00 00 06    	return    

000028c4 <_as3993ContinuousWrite>:
    28c4:	02 00 fa    	lnk       #0x2
    28c6:	88 9f be    	mov.d     w8, [w15++]
    28c8:	00 4f 78    	mov.b     w0, [w14]
    28ca:	81 04 78    	mov.w     w1, w9
    28cc:	02 44 78    	mov.b     w2, w8
    28ce:	96 80 a9    	bclr.b    0x96, #0x4
    28d0:	15 c0 b3    	mov.b     #0x1, w5
    28d2:	00 42 eb    	clr.b     w4
    28d4:	84 41 78    	mov.b     w4, w3
    28d6:	00 01 eb    	clr.w     w2
    28d8:	85 40 78    	mov.b     w5, w1
    28da:	0e 00 78    	mov.w     w14, w0
    28dc:	aa 0e 07    	rcall     0x4632 <_writeReadAS3993>
    28de:	80 42 eb    	clr.b     w5
    28e0:	24 c0 b3    	mov.b     #0x2, w4
    28e2:	85 41 78    	mov.b     w5, w3
    28e4:	00 01 eb    	clr.w     w2
    28e6:	88 40 78    	mov.b     w8, w1
    28e8:	09 00 78    	mov.w     w9, w0
    28ea:	a3 0e 07    	rcall     0x4632 <_writeReadAS3993>
    28ec:	96 80 a8    	bset.b    0x96, #0x4
    28ee:	4f 04 be    	mov.d     [--w15], w8
    28f0:	00 80 fa    	ulnk      
    28f2:	00 00 06    	return    

000028f4 <_as3993SingleWrite>:
    28f4:	04 00 fa    	lnk       #0x4
    28f6:	00 4f 78    	mov.b     w0, [w14]
    28f8:	11 47 98    	mov.b     w1, [w14+1]
    28fa:	96 80 a9    	bclr.b    0x96, #0x4
    28fc:	d1 cd b3    	mov.b     #0xdd, w1
    28fe:	01 40 40    	add.b     w0, w1, w0
    2900:	e3 4f 50    	sub.b     w0, #0x3, [w15]
    2902:	09 00 3e    	bra       GTU, 0x2916 <.L47>
    2904:	00 cb b3    	mov.b     #0xb0, w0
    2906:	20 47 98    	mov.b     w0, [w14+2]
    2908:	15 c0 b3    	mov.b     #0x1, w5
    290a:	00 42 eb    	clr.b     w4
    290c:	84 41 78    	mov.b     w4, w3
    290e:	00 01 eb    	clr.w     w2
    2910:	85 40 78    	mov.b     w5, w1
    2912:	0e 80 e8    	inc2.w    w14, w0
    2914:	8e 0e 07    	rcall     0x4632 <_writeReadAS3993>

00002916 <.L47>:
    2916:	15 c0 b3    	mov.b     #0x1, w5
    2918:	05 42 78    	mov.b     w5, w4
    291a:	80 41 eb    	clr.b     w3
    291c:	00 01 eb    	clr.w     w2
    291e:	21 c0 b3    	mov.b     #0x2, w1
    2920:	0e 00 78    	mov.w     w14, w0
    2922:	87 0e 07    	rcall     0x4632 <_writeReadAS3993>
    2924:	96 80 a8    	bset.b    0x96, #0x4
    2926:	00 80 fa    	ulnk      
    2928:	00 00 06    	return    

0000292a <_as3993CommandContinuousAddress>:
    292a:	02 00 fa    	lnk       #0x2
    292c:	88 9f be    	mov.d     w8, [w15++]
    292e:	02 4f 78    	mov.b     w2, [w14]
    2930:	83 04 78    	mov.w     w3, w9
    2932:	04 44 78    	mov.b     w4, w8
    2934:	96 80 a9    	bclr.b    0x96, #0x4
    2936:	15 c0 b3    	mov.b     #0x1, w5
    2938:	00 42 eb    	clr.b     w4
    293a:	84 41 78    	mov.b     w4, w3
    293c:	00 01 eb    	clr.w     w2
    293e:	79 0e 07    	rcall     0x4632 <_writeReadAS3993>
    2940:	80 42 eb    	clr.b     w5
    2942:	05 42 78    	mov.b     w5, w4
    2944:	85 41 78    	mov.b     w5, w3
    2946:	00 01 eb    	clr.w     w2
    2948:	11 c0 b3    	mov.b     #0x1, w1
    294a:	0e 00 78    	mov.w     w14, w0
    294c:	72 0e 07    	rcall     0x4632 <_writeReadAS3993>
    294e:	80 42 eb    	clr.b     w5
    2950:	24 c0 b3    	mov.b     #0x2, w4
    2952:	85 41 78    	mov.b     w5, w3
    2954:	00 01 eb    	clr.w     w2
    2956:	88 40 78    	mov.b     w8, w1
    2958:	09 00 78    	mov.w     w9, w0
    295a:	6b 0e 07    	rcall     0x4632 <_writeReadAS3993>
    295c:	96 80 a8    	bset.b    0x96, #0x4
    295e:	4f 04 be    	mov.d     [--w15], w8
    2960:	00 80 fa    	ulnk      
    2962:	00 00 06    	return    

00002964 <_as3993WaitForResponseTimed>:
    2964:	00 00 fa    	lnk       #0x0
    2966:	88 9f be    	mov.d     w8, [w15++]
    2968:	8a 9f be    	mov.d     w10, [w15++]
    296a:	80 05 78    	mov.w     w0, w11
    296c:	81 04 78    	mov.w     w1, w9
    296e:	91 ef 80    	mov.w     0x1df2, w1
    2970:	00 80 60    	and.w     w1, w0, w0
    2972:	0f 00 3a    	bra       NZ, 0x2992 <.L53>
    2974:	14 00 37    	bra       0x299e <.L63>

00002976 <.L55>:
    2976:	09 04 78    	mov.w     w9, w8
    2978:	00 05 eb    	clr.w     w10

0000297a <.L56>:
    297a:	00 e8 23    	mov.w     #0x3e80, w0
    297c:	01 00 20    	mov.w     #0x0, w1
    297e:	db 0f 07    	rcall     0x4936 <___delay32>
    2980:	08 04 e9    	dec.w     w8, w8
    2982:	91 ef 80    	mov.w     0x1df2, w1
    2984:	0b 80 60    	and.w     w1, w11, w0
    2986:	04 00 3a    	bra       NZ, 0x2990 <.L57>
    2988:	0a 05 e8    	inc.w     w10, w10
    298a:	8a 8f 54    	sub.w     w9, w10, [w15]
    298c:	04 00 32    	bra       Z, 0x2996 <.L59>
    298e:	f5 ff 37    	bra       0x297a <.L56>

00002990 <.L57>:
    2990:	88 04 78    	mov.w     w8, w9

00002992 <.L53>:
    2992:	09 00 e0    	cp0.w     w9
    2994:	07 00 3a    	bra       NZ, 0x29a4 <.L61>

00002996 <.L59>:
    2996:	5f 01 07    	rcall     0x2c56 <_as3993Reset>
    2998:	10 00 20    	mov.w     #0x1, w0
    299a:	90 ef 88    	mov.w     w0, 0x1df2
    299c:	03 00 37    	bra       0x29a4 <.L61>

0000299e <.L63>:
    299e:	09 00 e0    	cp0.w     w9
    29a0:	fa ff 32    	bra       Z, 0x2996 <.L59>
    29a2:	e9 ff 37    	bra       0x2976 <.L55>

000029a4 <.L61>:
    29a4:	4f 05 be    	mov.d     [--w15], w10
    29a6:	4f 04 be    	mov.d     [--w15], w8
    29a8:	00 80 fa    	ulnk      
    29aa:	00 00 06    	return    

000029ac <_as3993WaitForResponse>:
    29ac:	00 00 fa    	lnk       #0x0
    29ae:	88 9f be    	mov.d     w8, [w15++]
    29b0:	8a 1f 78    	mov.w     w10, [w15++]
    29b2:	80 04 78    	mov.w     w0, w9
    29b4:	91 ef 80    	mov.w     0x1df2, w1
    29b6:	00 80 60    	and.w     w1, w0, w0
    29b8:	12 00 3a    	bra       NZ, 0x29de <.L71>
    29ba:	00 04 78    	mov.w     w0, w8
    29bc:	8a 38 21    	mov.w     #0x1388, w10

000029be <.L67>:
    29be:	08 04 e8    	inc.w     w8, w8
    29c0:	00 0a 20    	mov.w     #0xa0, w0
    29c2:	01 00 20    	mov.w     #0x0, w1
    29c4:	b8 0f 07    	rcall     0x4936 <___delay32>
    29c6:	90 ef 80    	mov.w     0x1df2, w0
    29c8:	09 00 60    	and.w     w0, w9, w0
    29ca:	03 00 3a    	bra       NZ, 0x29d2 <.L68>
    29cc:	8a 0f 54    	sub.w     w8, w10, [w15]
    29ce:	04 00 32    	bra       Z, 0x29d8 <.L70>
    29d0:	f6 ff 37    	bra       0x29be <.L67>

000029d2 <.L68>:
    29d2:	70 38 21    	mov.w     #0x1387, w0
    29d4:	80 0f 54    	sub.w     w8, w0, [w15]
    29d6:	03 00 36    	bra       LEU, 0x29de <.L71>

000029d8 <.L70>:
    29d8:	3e 01 07    	rcall     0x2c56 <_as3993Reset>
    29da:	10 00 20    	mov.w     #0x1, w0
    29dc:	90 ef 88    	mov.w     w0, 0x1df2

000029de <.L71>:
    29de:	4f 05 78    	mov.w     [--w15], w10
    29e0:	4f 04 be    	mov.d     [--w15], w8
    29e2:	00 80 fa    	ulnk      
    29e4:	00 00 06    	return    

000029e6 <_as3993EnterDirectMode>:
    29e6:	00 00 fa    	lnk       #0x0
    29e8:	96 80 a9    	bclr.b    0x96, #0x4
    29ea:	f2 3d ef    	clr.w     0x1df2
    29ec:	10 c8 b3    	mov.b     #0x81, w0
    29ee:	1a ff 07    	rcall     0x2824 <_as3993SingleCommand>
    29f0:	49 0e 07    	rcall     0x4684 <_setPortDirect>
    29f2:	00 80 fa    	ulnk      
    29f4:	00 00 06    	return    

000029f6 <_as3993ExitDirectMode>:
    29f6:	00 00 fa    	lnk       #0x0
    29f8:	49 0e 07    	rcall     0x468c <_setPortNormal>
    29fa:	f2 3d ef    	clr.w     0x1df2
    29fc:	96 80 a8    	bset.b    0x96, #0x4
    29fe:	00 80 fa    	ulnk      
    2a00:	00 00 06    	return    

00002a02 <_as3993SelectLinkFrequency>:
    2a02:	00 00 fa    	lnk       #0x0
    2a04:	88 1f 78    	mov.w     w8, [w15++]
    2a06:	00 44 78    	mov.b     w0, w8
    2a08:	30 c0 b3    	mov.b     #0x3, w0
    2a0a:	3e ff 07    	rcall     0x2888 <_as3993SingleRead>
    2a0c:	c4 40 dd    	sl.w      w8, #0x4, w1
    2a0e:	6f 40 60    	and.b     w0, #0xf, w0
    2a10:	80 c0 70    	ior.b     w1, w0, w1
    2a12:	30 c0 b3    	mov.b     #0x3, w0
    2a14:	6f ff 07    	rcall     0x28f4 <_as3993SingleWrite>
    2a16:	4f 04 78    	mov.w     [--w15], w8
    2a18:	00 80 fa    	ulnk      
    2a1a:	00 00 06    	return    

00002a1c <_as3993LockPLL>:
    2a1c:	00 00 fa    	lnk       #0x0
    2a1e:	88 9f be    	mov.d     w8, [w15++]
    2a20:	90 c2 b3    	mov.b     #0x29, w0
    2a22:	32 ff 07    	rcall     0x2888 <_as3993SingleRead>
    2a24:	f1 cc b3    	mov.b     #0xcf, w1
    2a26:	01 40 60    	and.b     w0, w1, w0
    2a28:	80 40 78    	mov.b     w0, w1
    2a2a:	01 44 a0    	bset.b    w1, #0x4
    2a2c:	90 c2 b3    	mov.b     #0x29, w0
    2a2e:	62 ff 07    	rcall     0x28f4 <_as3993SingleWrite>
    2a30:	10 c1 b3    	mov.b     #0x11, w0
    2a32:	2a ff 07    	rcall     0x2888 <_as3993SingleRead>
    2a34:	80 44 78    	mov.b     w0, w9
    2a36:	09 74 a0    	bset.b    w9, #0x7
    2a38:	89 40 78    	mov.b     w9, w1
    2a3a:	10 c1 b3    	mov.b     #0x11, w0
    2a3c:	5b ff 07    	rcall     0x28f4 <_as3993SingleWrite>
    2a3e:	00 e8 23    	mov.w     #0x3e80, w0
    2a40:	01 00 20    	mov.w     #0x0, w1
    2a42:	79 0f 07    	rcall     0x4936 <___delay32>
    2a44:	c0 c2 b3    	mov.b     #0x2c, w0
    2a46:	20 ff 07    	rcall     0x2888 <_as3993SingleRead>
    2a48:	00 44 78    	mov.b     w0, w8
    2a4a:	89 40 78    	mov.b     w9, w1
    2a4c:	01 74 a1    	bclr.b    w1, #0x7
    2a4e:	10 c1 b3    	mov.b     #0x11, w0
    2a50:	51 ff 07    	rcall     0x28f4 <_as3993SingleWrite>
    2a52:	67 40 64    	and.b     w8, #0x7, w0
    2a54:	00 c0 e9    	dec2.b    w0, w0
    2a56:	e3 4f 50    	sub.b     w0, #0x3, [w15]
    2a58:	0d 00 36    	bra       LEU, 0x2a74 <.L84>
    2a5a:	00 04 eb    	clr.w     w8

00002a5c <.L82>:
    2a5c:	08 04 e8    	inc.w     w8, w8
    2a5e:	40 ca b3    	mov.b     #0xa4, w0
    2a60:	e1 fe 07    	rcall     0x2824 <_as3993SingleCommand>
    2a62:	00 10 27    	mov.w     #0x7100, w0
    2a64:	21 00 20    	mov.w     #0x2, w1
    2a66:	67 0f 07    	rcall     0x4936 <___delay32>
    2a68:	a0 c2 b3    	mov.b     #0x2a, w0
    2a6a:	0e ff 07    	rcall     0x2888 <_as3993SingleRead>
    2a6c:	00 18 a3    	btst.z    w0, #0x1
    2a6e:	02 00 3a    	bra       NZ, 0x2a74 <.L84>
    2a70:	e3 0f 54    	sub.w     w8, #0x3, [w15]
    2a72:	f4 ff 3a    	bra       NZ, 0x2a5c <.L82>

00002a74 <.L84>:
    2a74:	4f 04 be    	mov.d     [--w15], w8
    2a76:	00 80 fa    	ulnk      
    2a78:	00 00 06    	return    

00002a7a <_as3993SetBaseFrequency>:
    2a7a:	04 00 fa    	lnk       #0x4
    2a7c:	88 9f be    	mov.d     w8, [w15++]
    2a7e:	8a 9f be    	mov.d     w10, [w15++]
    2a80:	00 44 78    	mov.b     w0, w8
    2a82:	02 05 be    	mov.d     w2, w10
    2a84:	00 40 eb    	clr.b     w0
    2a86:	00 ff 07    	rcall     0x2888 <_as3993SingleRead>
    2a88:	80 44 78    	mov.b     w0, w9
    2a8a:	80 40 78    	mov.b     w0, w1
    2a8c:	01 04 a1    	bclr.b    w1, #0x0
    2a8e:	00 40 eb    	clr.b     w0
    2a90:	31 ff 07    	rcall     0x28f4 <_as3993SingleWrite>
    2a92:	f7 4f 54    	sub.b     w8, #0x17, [w15]
    2a94:	5a 00 3a    	bra       NZ, 0x2b4a <.L104>
    2a96:	0e 01 78    	mov.w     w14, w2
    2a98:	31 c0 b3    	mov.b     #0x3, w1
    2a9a:	08 40 78    	mov.b     w8, w0
    2a9c:	dc fe 07    	rcall     0x2856 <_as3993ContinuousRead>
    2a9e:	1e 44 78    	mov.b     [w14], w8
    2aa0:	88 00 78    	mov.w     w8, w1
    2aa2:	01 07 b2    	and.w     #0x70, w1
    2aa4:	00 05 20    	mov.w     #0x50, w0
    2aa6:	80 8f 50    	sub.w     w1, w0, [w15]
    2aa8:	0e 00 32    	bra       Z, 0x2ac6 <.L90>
    2aaa:	04 00 3c    	bra       GT, 0x2ab4 <.L93>
    2aac:	70 00 50    	sub.w     w0, #0x10, w0
    2aae:	80 8f 50    	sub.w     w1, w0, [w15]
    2ab0:	4c 00 3a    	bra       NZ, 0x2b4a <.L104>
    2ab2:	07 00 37    	bra       0x2ac2 <.L89>

00002ab4 <.L93>:
    2ab4:	00 06 20    	mov.w     #0x60, w0
    2ab6:	80 8f 50    	sub.w     w1, w0, [w15]
    2ab8:	08 00 32    	bra       Z, 0x2aca <.L91>
    2aba:	70 00 40    	add.w     w0, #0x10, w0
    2abc:	80 8f 50    	sub.w     w1, w0, [w15]
    2abe:	45 00 3a    	bra       NZ, 0x2b4a <.L104>
    2ac0:	32 00 37    	bra       0x2b26 <.L92>

00002ac2 <.L89>:
    2ac2:	d0 07 20    	mov.w     #0x7d, w0
    2ac4:	31 00 37    	bra       0x2b28 <.L94>

00002ac6 <.L90>:
    2ac6:	40 06 20    	mov.w     #0x64, w0
    2ac8:	2f 00 37    	bra       0x2b28 <.L94>

00002aca <.L91>:
    2aca:	20 03 20    	mov.w     #0x32, w0
    2acc:	2d 00 37    	bra       0x2b28 <.L94>

00002ace <.L95>:
    2ace:	12 04 b0    	add.w     #0x41, w2
    2ad0:	83 01 e8    	inc.w     w3, w3

00002ad2 <.L96>:
    2ad2:	84 00 51    	sub.w     w2, w4, w1
    2ad4:	03 01 78    	mov.w     w3, w2
    2ad6:	04 02 20    	mov.w     #0x20, w4
    2ad8:	f5 fd 2f    	mov.w     #0xffdf, w5
    2ada:	00 fe 2f    	mov.w     #0xffe0, w0

00002adc <.L97>:
    2adc:	84 8f 50    	sub.w     w1, w4, [w15]
    2ade:	02 00 36    	bra       LEU, 0x2ae4 <.L98>
    2ae0:	83 01 e9    	dec.w     w3, w3
    2ae2:	85 80 40    	add.w     w1, w5, w1

00002ae4 <.L98>:
    2ae4:	ff 8f 50    	sub.w     w1, #0x1f, [w15]
    2ae6:	04 00 36    	bra       LEU, 0x2af0 <.L100>
    2ae8:	02 01 e9    	dec.w     w2, w2
    2aea:	80 80 40    	add.w     w1, w0, w1
    2aec:	ff 8f 50    	sub.w     w1, #0x1f, [w15]
    2aee:	f6 ff 3e    	bra       GTU, 0x2adc <.L97>

00002af0 <.L100>:
    2af0:	f0 8f 50    	sub.w     w1, #0x10, [w15]
    2af2:	03 00 36    	bra       LEU, 0x2afa <.L102>
    2af4:	00 fe 2f    	mov.w     #0xffe0, w0
    2af6:	80 80 40    	add.w     w1, w0, w1
    2af8:	02 01 e9    	dec.w     w2, w2

00002afa <.L102>:
    2afa:	81 81 51    	sub.w     w3, w1, w3
    2afc:	02 81 40    	add.w     w1, w2, w2
    2afe:	01 cf b3    	mov.b     #0xf0, w1
    2b00:	81 40 64    	and.b     w8, w1, w1
    2b02:	46 10 de    	lsr.w     w2, #0x6, w0
    2b04:	6f 40 60    	and.b     w0, #0xf, w0
    2b06:	00 cf 70    	ior.b     w1, w0, [w14]
    2b08:	42 11 dd    	sl.w      w2, #0x2, w2
    2b0a:	48 18 de    	lsr.w     w3, #0x8, w0
    2b0c:	63 40 60    	and.b     w0, #0x3, w0
    2b0e:	00 41 71    	ior.b     w2, w0, w2
    2b10:	12 47 98    	mov.b     w2, [w14+1]
    2b12:	23 47 98    	mov.b     w3, [w14+2]
    2b14:	32 c0 b3    	mov.b     #0x3, w2
    2b16:	8e 00 78    	mov.w     w14, w1
    2b18:	70 c1 b3    	mov.b     #0x17, w0
    2b1a:	d4 fe 07    	rcall     0x28c4 <_as3993ContinuousWrite>
    2b1c:	7f ff 07    	rcall     0x2a1c <_as3993LockPLL>
    2b1e:	89 40 78    	mov.b     w9, w1
    2b20:	00 40 eb    	clr.b     w0
    2b22:	e8 fe 07    	rcall     0x28f4 <_as3993SingleWrite>
    2b24:	12 00 37    	bra       0x2b4a <.L104>

00002b26 <.L92>:
    2b26:	90 01 20    	mov.w     #0x19, w0

00002b28 <.L94>:
    2b28:	61 01 b8    	mul.uu    w0, #0x1, w2
    2b2a:	0a 00 be    	mov.d     w10, w0
    2b2c:	3d ec 07    	rcall     0x3a8 <___udivsi3>
    2b2e:	00 02 be    	mov.d     w0, w4
    2b30:	4a 09 dd    	sl.w      w1, #0xa, w2
    2b32:	46 00 de    	lsr.w     w0, #0x6, w0
    2b34:	00 00 71    	ior.w     w2, w0, w0
    2b36:	c6 08 de    	lsr.w     w1, #0x6, w1
    2b38:	f2 ff 23    	mov.w     #0x3fff, w2
    2b3a:	82 01 60    	and.w     w0, w2, w3
    2b3c:	46 18 dd    	sl.w      w3, #0x6, w0
    2b3e:	00 81 41    	add.w     w3, w0, w2
    2b40:	61 10 b8    	mul.uu    w2, #0x1, w0
    2b42:	80 0f 52    	sub.w     w4, w0, [w15]
    2b44:	81 8f 5a    	subb.w    w5, w1, [w15]
    2b46:	c3 ff 3e    	bra       GTU, 0x2ace <.L95>
    2b48:	c4 ff 37    	bra       0x2ad2 <.L96>

00002b4a <.L104>:
    2b4a:	4f 05 be    	mov.d     [--w15], w10
    2b4c:	4f 04 be    	mov.d     [--w15], w8
    2b4e:	00 80 fa    	ulnk      
    2b50:	00 00 06    	return    

00002b52 <_as3993EnterPowerDownMode>:
    2b52:	00 00 fa    	lnk       #0x0
    2b54:	88 1f 78    	mov.w     w8, [w15++]
    2b56:	cd c2 bf    	mov.b     0x2cd, WREG
    2b58:	00 58 a3    	btst.z    w0, #0x5
    2b5a:	34 00 32    	bra       Z, 0x2bc4 <.L116>
    2b5c:	96 80 a9    	bclr.b    0x96, #0x4
    2b5e:	86 80 a9    	bclr.b    0x86, #0x4
    2b60:	00 40 eb    	clr.b     w0
    2b62:	92 fe 07    	rcall     0x2888 <_as3993SingleRead>
    2b64:	9c fd b7    	mov.b     WREG, 0x1d9c
    2b66:	c1 cf b3    	mov.b     #0xfc, w1
    2b68:	81 40 60    	and.b     w0, w1, w1
    2b6a:	00 40 eb    	clr.b     w0
    2b6c:	c3 fe 07    	rcall     0x28f4 <_as3993SingleWrite>
    2b6e:	18 c0 b3    	mov.b     #0x1, w8
    2b70:	02 00 37    	bra       0x2b76 <.L109>

00002b72 <.L110>:
    2b72:	ef 4f 54    	sub.b     w8, #0xf, [w15]
    2b74:	05 00 32    	bra       Z, 0x2b80 <.L111>

00002b76 <.L109>:
    2b76:	08 40 78    	mov.b     w8, w0
    2b78:	87 fe 07    	rcall     0x2888 <_as3993SingleRead>
    2b7a:	08 81 fb    	ze        w8, w2
    2b7c:	c1 d9 21    	mov.w     #0x1d9c, w1
    2b7e:	00 f1 78    	mov.b     w0, [w2+w1]

00002b80 <.L111>:
    2b80:	08 44 e8    	inc.b     w8, w8
    2b82:	fc 4f 54    	sub.b     w8, #0x1c, [w15]
    2b84:	f6 ff 36    	bra       LEU, 0x2b72 <.L110>
    2b86:	20 c2 b3    	mov.b     #0x22, w0
    2b88:	7f fe 07    	rcall     0x2888 <_as3993SingleRead>
    2b8a:	b9 fd b7    	mov.b     WREG, 0x1db9
    2b8c:	90 c2 b3    	mov.b     #0x29, w0
    2b8e:	7c fe 07    	rcall     0x2888 <_as3993SingleRead>
    2b90:	ba fd b7    	mov.b     WREG, 0x1dba
    2b92:	50 c3 b3    	mov.b     #0x35, w0
    2b94:	79 fe 07    	rcall     0x2888 <_as3993SingleRead>
    2b96:	bb fd b7    	mov.b     WREG, 0x1dbb
    2b98:	60 c3 b3    	mov.b     #0x36, w0
    2b9a:	76 fe 07    	rcall     0x2888 <_as3993SingleRead>
    2b9c:	bc fd b7    	mov.b     WREG, 0x1dbc
    2b9e:	c0 c3 b3    	mov.b     #0x3c, w0
    2ba0:	73 fe 07    	rcall     0x2888 <_as3993SingleRead>
    2ba2:	bd fd b7    	mov.b     WREG, 0x1dbd
    2ba4:	a0 c3 b3    	mov.b     #0x3a, w0
    2ba6:	70 fe 07    	rcall     0x2888 <_as3993SingleRead>
    2ba8:	be fd b7    	mov.b     WREG, 0x1dbe
    2baa:	38 1f 20    	mov.w     #0x1f3, w8
    2bac:	06 00 37    	bra       0x2bba <.L113>

00002bae <.L114>:
    2bae:	00 e8 23    	mov.w     #0x3e80, w0
    2bb0:	01 00 20    	mov.w     #0x0, w1
    2bb2:	c1 0e 07    	rcall     0x4936 <___delay32>
    2bb4:	08 04 e9    	dec.w     w8, w8
    2bb6:	e1 0f 44    	add.w     w8, #0x1, [w15]
    2bb8:	04 00 32    	bra       Z, 0x2bc2 <.L115>

00002bba <.L113>:
    2bba:	a0 c2 b3    	mov.b     #0x2a, w0
    2bbc:	65 fe 07    	rcall     0x2888 <_as3993SingleRead>
    2bbe:	00 28 a3    	btst.z    w0, #0x2
    2bc0:	f6 ff 3a    	bra       NZ, 0x2bae <.L114>

00002bc2 <.L115>:
    2bc2:	cd a2 a9    	bclr.b    0x2cd, #0x5

00002bc4 <.L116>:
    2bc4:	4f 04 78    	mov.w     [--w15], w8
    2bc6:	00 80 fa    	ulnk      
    2bc8:	00 00 06    	return    

00002bca <_as3993ExitPowerDownMode>:
    2bca:	00 00 fa    	lnk       #0x0
    2bcc:	88 1f 78    	mov.w     w8, [w15++]
    2bce:	cd c2 bf    	mov.b     0x2cd, WREG
    2bd0:	01 c2 b3    	mov.b     #0x20, w1
    2bd2:	01 44 60    	and.b     w0, w1, w8
    2bd4:	3d 00 3a    	bra       NZ, 0x2c50 <.L126>
    2bd6:	cd a2 a8    	bset.b    0x2cd, #0x5
    2bd8:	00 0a 20    	mov.w     #0xa0, w0
    2bda:	01 00 20    	mov.w     #0x0, w1
    2bdc:	ac 0e 07    	rcall     0x4936 <___delay32>
    2bde:	83 00 07    	rcall     0x2ce6 <_as3993WaitForStartup>
    2be0:	c1 d9 21    	mov.w     #0x1d9c, w1
    2be2:	91 40 78    	mov.b     [w1], w1
    2be4:	c0 cf b3    	mov.b     #0xfc, w0
    2be6:	80 c0 60    	and.b     w1, w0, w1
    2be8:	08 40 78    	mov.b     w8, w0
    2bea:	84 fe 07    	rcall     0x28f4 <_as3993SingleWrite>
    2bec:	18 c0 b3    	mov.b     #0x1, w8
    2bee:	02 00 37    	bra       0x2bf4 <.L122>

00002bf0 <.L123>:
    2bf0:	ef 4f 54    	sub.b     w8, #0xf, [w15]
    2bf2:	05 00 32    	bra       Z, 0x2bfe <.L124>

00002bf4 <.L122>:
    2bf4:	08 80 fb    	ze        w8, w0
    2bf6:	c1 d9 21    	mov.w     #0x1d9c, w1
    2bf8:	e0 c0 78    	mov.b     [w0+w1], w1
    2bfa:	08 40 78    	mov.b     w8, w0
    2bfc:	7b fe 07    	rcall     0x28f4 <_as3993SingleWrite>

00002bfe <.L124>:
    2bfe:	08 44 e8    	inc.b     w8, w8
    2c00:	fc 4f 54    	sub.b     w8, #0x1c, [w15]
    2c02:	f6 ff 36    	bra       LEU, 0x2bf0 <.L123>
    2c04:	91 db 21    	mov.w     #0x1db9, w1
    2c06:	91 40 78    	mov.b     [w1], w1
    2c08:	20 c2 b3    	mov.b     #0x22, w0
    2c0a:	74 fe 07    	rcall     0x28f4 <_as3993SingleWrite>
    2c0c:	a1 db 21    	mov.w     #0x1dba, w1
    2c0e:	91 40 78    	mov.b     [w1], w1
    2c10:	90 c2 b3    	mov.b     #0x29, w0
    2c12:	70 fe 07    	rcall     0x28f4 <_as3993SingleWrite>
    2c14:	b1 db 21    	mov.w     #0x1dbb, w1
    2c16:	91 40 78    	mov.b     [w1], w1
    2c18:	50 c3 b3    	mov.b     #0x35, w0
    2c1a:	6c fe 07    	rcall     0x28f4 <_as3993SingleWrite>
    2c1c:	c1 db 21    	mov.w     #0x1dbc, w1
    2c1e:	91 40 78    	mov.b     [w1], w1
    2c20:	60 c3 b3    	mov.b     #0x36, w0
    2c22:	68 fe 07    	rcall     0x28f4 <_as3993SingleWrite>
    2c24:	d1 db 21    	mov.w     #0x1dbd, w1
    2c26:	91 40 78    	mov.b     [w1], w1
    2c28:	c0 c3 b3    	mov.b     #0x3c, w0
    2c2a:	64 fe 07    	rcall     0x28f4 <_as3993SingleWrite>
    2c2c:	e1 db 21    	mov.w     #0x1dbe, w1
    2c2e:	91 40 78    	mov.b     [w1], w1
    2c30:	00 cf b3    	mov.b     #0xf0, w0
    2c32:	80 c0 60    	and.b     w1, w0, w1
    2c34:	a0 c3 b3    	mov.b     #0x3a, w0
    2c36:	5e fe 07    	rcall     0x28f4 <_as3993SingleWrite>
    2c38:	00 2c 21    	mov.w     #0x12c0, w0
    2c3a:	01 00 20    	mov.w     #0x0, w1
    2c3c:	7c 0e 07    	rcall     0x4936 <___delay32>
    2c3e:	ee fe 07    	rcall     0x2a1c <_as3993LockPLL>
    2c40:	c1 d9 21    	mov.w     #0x1d9c, w1
    2c42:	91 40 78    	mov.b     [w1], w1
    2c44:	00 40 eb    	clr.b     w0
    2c46:	56 fe 07    	rcall     0x28f4 <_as3993SingleWrite>
    2c48:	a0 c2 b3    	mov.b     #0x2a, w0
    2c4a:	1e fe 07    	rcall     0x2888 <_as3993SingleRead>
    2c4c:	86 80 a9    	bclr.b    0x86, #0x4
    2c4e:	96 80 a8    	bset.b    0x96, #0x4

00002c50 <.L126>:
    2c50:	4f 04 78    	mov.w     [--w15], w8
    2c52:	00 80 fa    	ulnk      
    2c54:	00 00 06    	return    

00002c56 <_as3993Reset>:
    2c56:	00 00 fa    	lnk       #0x0
    2c58:	7c ff 07    	rcall     0x2b52 <_as3993EnterPowerDownMode>
    2c5a:	00 e8 23    	mov.w     #0x3e80, w0
    2c5c:	01 00 20    	mov.w     #0x0, w1
    2c5e:	6b 0e 07    	rcall     0x4936 <___delay32>
    2c60:	b4 ff 07    	rcall     0x2bca <_as3993ExitPowerDownMode>
    2c62:	00 80 fa    	ulnk      
    2c64:	00 00 06    	return    

00002c66 <_as3993ResetDoNotPreserveRegisters>:
    2c66:	00 00 fa    	lnk       #0x0
    2c68:	cd a2 a9    	bclr.b    0x2cd, #0x5
    2c6a:	00 e8 23    	mov.w     #0x3e80, w0
    2c6c:	01 00 20    	mov.w     #0x0, w1
    2c6e:	63 0e 07    	rcall     0x4936 <___delay32>
    2c70:	cd a2 a8    	bset.b    0x2cd, #0x5
    2c72:	00 0a 20    	mov.w     #0xa0, w0
    2c74:	01 00 20    	mov.w     #0x0, w1
    2c76:	5f 0e 07    	rcall     0x4936 <___delay32>
    2c78:	36 00 07    	rcall     0x2ce6 <_as3993WaitForStartup>
    2c7a:	00 80 fa    	ulnk      
    2c7c:	00 00 06    	return    

00002c7e <_as3993EnterPowerNormalMode>:
    2c7e:	00 00 fa    	lnk       #0x0
    2c80:	a4 ff 07    	rcall     0x2bca <_as3993ExitPowerDownMode>
    2c82:	00 40 eb    	clr.b     w0
    2c84:	01 fe 07    	rcall     0x2888 <_as3993SingleRead>
    2c86:	80 40 78    	mov.b     w0, w1
    2c88:	01 74 a1    	bclr.b    w1, #0x7
    2c8a:	00 40 eb    	clr.b     w0
    2c8c:	33 fe 07    	rcall     0x28f4 <_as3993SingleWrite>
    2c8e:	00 40 eb    	clr.b     w0
    2c90:	4d 00 07    	rcall     0x2d2c <_as3993AntennaPower>
    2c92:	00 80 fa    	ulnk      
    2c94:	00 00 06    	return    

00002c96 <_as3993ExitPowerNormalMode>:
    2c96:	00 00 fa    	lnk       #0x0
    2c98:	00 80 fa    	ulnk      
    2c9a:	00 00 06    	return    

00002c9c <_as3993EnterPowerNormalRfMode>:
    2c9c:	00 00 fa    	lnk       #0x0
    2c9e:	95 ff 07    	rcall     0x2bca <_as3993ExitPowerDownMode>
    2ca0:	00 40 eb    	clr.b     w0
    2ca2:	f2 fd 07    	rcall     0x2888 <_as3993SingleRead>
    2ca4:	80 40 78    	mov.b     w0, w1
    2ca6:	01 74 a1    	bclr.b    w1, #0x7
    2ca8:	00 40 eb    	clr.b     w0
    2caa:	24 fe 07    	rcall     0x28f4 <_as3993SingleWrite>
    2cac:	10 c0 b3    	mov.b     #0x1, w0
    2cae:	3e 00 07    	rcall     0x2d2c <_as3993AntennaPower>
    2cb0:	00 80 fa    	ulnk      
    2cb2:	00 00 06    	return    

00002cb4 <_as3993ExitPowerNormalRfMode>:
    2cb4:	00 00 fa    	lnk       #0x0
    2cb6:	00 80 fa    	ulnk      
    2cb8:	00 00 06    	return    

00002cba <_as3993EnterPowerStandbyMode>:
    2cba:	00 00 fa    	lnk       #0x0
    2cbc:	86 ff 07    	rcall     0x2bca <_as3993ExitPowerDownMode>
    2cbe:	00 40 eb    	clr.b     w0
    2cc0:	35 00 07    	rcall     0x2d2c <_as3993AntennaPower>
    2cc2:	00 40 eb    	clr.b     w0
    2cc4:	e1 fd 07    	rcall     0x2888 <_as3993SingleRead>
    2cc6:	80 40 78    	mov.b     w0, w1
    2cc8:	01 74 a0    	bset.b    w1, #0x7
    2cca:	00 40 eb    	clr.b     w0
    2ccc:	13 fe 07    	rcall     0x28f4 <_as3993SingleWrite>
    2cce:	00 80 fa    	ulnk      
    2cd0:	00 00 06    	return    

00002cd2 <_as3993ExitPowerStandbyMode>:
    2cd2:	00 00 fa    	lnk       #0x0
    2cd4:	7a ff 07    	rcall     0x2bca <_as3993ExitPowerDownMode>
    2cd6:	00 40 eb    	clr.b     w0
    2cd8:	d7 fd 07    	rcall     0x2888 <_as3993SingleRead>
    2cda:	80 40 78    	mov.b     w0, w1
    2cdc:	01 74 a1    	bclr.b    w1, #0x7
    2cde:	00 40 eb    	clr.b     w0
    2ce0:	09 fe 07    	rcall     0x28f4 <_as3993SingleWrite>
    2ce2:	00 80 fa    	ulnk      
    2ce4:	00 00 06    	return    

00002ce6 <_as3993WaitForStartup>:
    2ce6:	02 00 fa    	lnk       #0x2
    2ce8:	88 9f be    	mov.d     w8, [w15++]
    2cea:	8a 9f be    	mov.d     w10, [w15++]
    2cec:	80 04 eb    	clr.w     w9
    2cee:	0b c6 b3    	mov.b     #0x60, w11
    2cf0:	ba 0f 20    	mov.w     #0xfb, w10

00002cf2 <.L146>:
    2cf2:	8d fd 07    	rcall     0x280e <_as3993ReadChipVersion>
    2cf4:	00 44 78    	mov.b     w0, w8
    2cf6:	a0 c2 b3    	mov.b     #0x2a, w0
    2cf8:	c7 fd 07    	rcall     0x2888 <_as3993SingleRead>
    2cfa:	80 40 78    	mov.b     w0, w1
    2cfc:	89 04 e8    	inc.w     w9, w9
    2cfe:	02 c6 b3    	mov.b     #0x60, w2
    2d00:	02 40 64    	and.b     w8, w2, w0
    2d02:	8b 4f 50    	sub.b     w0, w11, [w15]
    2d04:	02 00 3a    	bra       NZ, 0x2d0a <.L147>
    2d06:	01 08 a3    	btst.z    w1, #0x0
    2d08:	02 00 3a    	bra       NZ, 0x2d0e <.L149>

00002d0a <.L147>:
    2d0a:	8a 8f 54    	sub.w     w9, w10, [w15]
    2d0c:	f2 ff 3a    	bra       NZ, 0x2cf2 <.L146>

00002d0e <.L149>:
    2d0e:	00 f4 21    	mov.w     #0x1f40, w0
    2d10:	01 00 20    	mov.w     #0x0, w1
    2d12:	11 0e 07    	rcall     0x4936 <___delay32>
    2d14:	0e 01 78    	mov.w     w14, w2
    2d16:	21 c0 b3    	mov.b     #0x2, w1
    2d18:	70 c3 b3    	mov.b     #0x37, w0
    2d1a:	9d fd 07    	rcall     0x2856 <_as3993ContinuousRead>
    2d1c:	f2 3d ef    	clr.w     0x1df2
    2d1e:	00 d0 27    	mov.w     #0x7d00, w0
    2d20:	01 00 20    	mov.w     #0x0, w1
    2d22:	09 0e 07    	rcall     0x4936 <___delay32>
    2d24:	4f 05 be    	mov.d     [--w15], w10
    2d26:	4f 04 be    	mov.d     [--w15], w8
    2d28:	00 80 fa    	ulnk      
    2d2a:	00 00 06    	return    

00002d2c <_as3993AntennaPower>:
    2d2c:	00 00 fa    	lnk       #0x0
    2d2e:	88 9f be    	mov.d     w8, [w15++]
    2d30:	00 44 78    	mov.b     w0, w8
    2d32:	00 40 eb    	clr.b     w0
    2d34:	a9 fd 07    	rcall     0x2888 <_as3993SingleRead>
    2d36:	80 44 78    	mov.b     w0, w9
    2d38:	08 04 e0    	cp0.b     w8
    2d3a:	0f 00 32    	bra       Z, 0x2d5a <.L153>
    2d3c:	63 80 64    	and.w     w9, #0x3, w0
    2d3e:	e3 0f 50    	sub.w     w0, #0x3, [w15]
    2d40:	20 00 32    	bra       Z, 0x2d82 <.L161>
    2d42:	cd 42 a8    	bset.b    0x2cd, #0x2
    2d44:	00 2c 21    	mov.w     #0x12c0, w0
    2d46:	01 00 20    	mov.w     #0x0, w1
    2d48:	f6 0d 07    	rcall     0x4936 <___delay32>
    2d4a:	89 40 78    	mov.b     w9, w1
    2d4c:	31 40 b3    	ior.b     #0x3, w1
    2d4e:	00 40 eb    	clr.b     w0
    2d50:	d1 fd 07    	rcall     0x28f4 <_as3993SingleWrite>
    2d52:	00 70 27    	mov.w     #0x7700, w0
    2d54:	11 00 20    	mov.w     #0x1, w1
    2d56:	ef 0d 07    	rcall     0x4936 <___delay32>
    2d58:	14 00 37    	bra       0x2d82 <.L161>

00002d5a <.L153>:
    2d5a:	63 80 64    	and.w     w9, #0x3, w0
    2d5c:	e3 0f 50    	sub.w     w0, #0x3, [w15]
    2d5e:	11 00 3a    	bra       NZ, 0x2d82 <.L161>
    2d60:	c1 cf b3    	mov.b     #0xfc, w1
    2d62:	81 c0 64    	and.b     w9, w1, w1
    2d64:	00 40 eb    	clr.b     w0
    2d66:	c6 fd 07    	rcall     0x28f4 <_as3993SingleWrite>
    2d68:	38 1f 20    	mov.w     #0x1f3, w8
    2d6a:	06 00 37    	bra       0x2d78 <.L158>

00002d6c <.L159>:
    2d6c:	00 64 20    	mov.w     #0x640, w0
    2d6e:	01 00 20    	mov.w     #0x0, w1
    2d70:	e2 0d 07    	rcall     0x4936 <___delay32>
    2d72:	08 04 e9    	dec.w     w8, w8
    2d74:	e1 0f 44    	add.w     w8, #0x1, [w15]
    2d76:	04 00 32    	bra       Z, 0x2d80 <.L160>

00002d78 <.L158>:
    2d78:	a0 c2 b3    	mov.b     #0x2a, w0
    2d7a:	86 fd 07    	rcall     0x2888 <_as3993SingleRead>
    2d7c:	00 28 a3    	btst.z    w0, #0x2
    2d7e:	f6 ff 3a    	bra       NZ, 0x2d6c <.L159>

00002d80 <.L160>:
    2d80:	cd 42 a9    	bclr.b    0x2cd, #0x2

00002d82 <.L161>:
    2d82:	4f 04 be    	mov.d     [--w15], w8
    2d84:	00 80 fa    	ulnk      
    2d86:	00 00 06    	return    

00002d88 <_as3993SaveSensitivity>:
    2d88:	00 00 fa    	lnk       #0x0
    2d8a:	a0 c0 b3    	mov.b     #0xa, w0
    2d8c:	7d fd 07    	rcall     0x2888 <_as3993SingleRead>
    2d8e:	9b fd b7    	mov.b     WREG, 0x1d9b
    2d90:	00 80 fa    	ulnk      
    2d92:	00 00 06    	return    

00002d94 <_as3993RestoreSensitivity>:
    2d94:	00 00 fa    	lnk       #0x0
    2d96:	b1 d9 21    	mov.w     #0x1d9b, w1
    2d98:	91 40 78    	mov.b     [w1], w1
    2d9a:	a0 c0 b3    	mov.b     #0xa, w0
    2d9c:	ab fd 07    	rcall     0x28f4 <_as3993SingleWrite>
    2d9e:	00 80 fa    	ulnk      
    2da0:	00 00 06    	return    

00002da2 <_as3993GetSensitivity>:
    2da2:	00 00 fa    	lnk       #0x0
    2da4:	88 1f 78    	mov.w     w8, [w15++]
    2da6:	d0 c0 b3    	mov.b     #0xd, w0
    2da8:	6f fd 07    	rcall     0x2888 <_as3993SingleRead>
    2daa:	00 44 78    	mov.b     w0, w8
    2dac:	a0 c0 b3    	mov.b     #0xa, w0
    2dae:	6c fd 07    	rcall     0x2888 <_as3993SingleRead>
    2db0:	08 28 a3    	btst.z    w8, #0x2
    2db2:	09 00 32    	bra       Z, 0x2dc6 <.L167>
    2db4:	e3 00 60    	and.w     w0, #0x3, w1
    2db6:	63 cb b3    	mov.b     #0xb6, w3
    2db8:	e3 8f 50    	sub.w     w1, #0x3, [w15]
    2dba:	0c 00 32    	bra       Z, 0x2dd4 <.L171>
    2dbc:	23 cc b3    	mov.b     #0xc2, w3
    2dbe:	01 00 e0    	cp0.w     w1
    2dc0:	09 00 32    	bra       Z, 0x2dd4 <.L171>
    2dc2:	c3 cb b3    	mov.b     #0xbc, w3
    2dc4:	07 00 37    	bra       0x2dd4 <.L171>

00002dc6 <.L167>:
    2dc6:	43 cc b3    	mov.b     #0xc4, w3
    2dc8:	00 08 a3    	btst.z    w0, #0x0
    2dca:	01 00 3a    	bra       NZ, 0x2dce <.L176>
    2dcc:	c3 cb b3    	mov.b     #0xbc, w3

00002dce <.L176>:
    2dce:	00 18 a3    	btst.z    w0, #0x1
    2dd0:	01 00 32    	bra       Z, 0x2dd4 <.L171>
    2dd2:	ea c1 51    	sub.b     w3, #0xa, w3

00002dd4 <.L171>:
    2dd4:	00 81 fb    	ze        w0, w2
    2dd6:	46 10 de    	lsr.w     w2, #0x6, w0
    2dd8:	63 00 b9    	mul.su    w0, #0x3, w0
    2dda:	02 58 a3    	btst.z    w2, #0x5
    2ddc:	02 00 32    	bra       Z, 0x2de2 <.L178>
    2dde:	00 c0 51    	sub.b     w3, w0, w0
    2de0:	01 00 37    	bra       0x2de4 <.L180>

00002de2 <.L178>:
    2de2:	00 c0 41    	add.b     w3, w0, w0

00002de4 <.L180>:
    2de4:	00 00 fb    	se        w0, w0
    2de6:	4f 04 78    	mov.w     [--w15], w8
    2de8:	00 80 fa    	ulnk      
    2dea:	00 00 06    	return    

00002dec <_as3993SetSensitivity>:
    2dec:	00 00 fa    	lnk       #0x0
    2dee:	88 9f be    	mov.d     w8, [w15++]
    2df0:	80 44 78    	mov.b     w0, w9
    2df2:	a0 c0 b3    	mov.b     #0xa, w0
    2df4:	49 fd 07    	rcall     0x2888 <_as3993SingleRead>
    2df6:	00 44 78    	mov.b     w0, w8
    2df8:	d0 c0 b3    	mov.b     #0xd, w0
    2dfa:	46 fd 07    	rcall     0x2888 <_as3993SingleRead>
    2dfc:	fc 40 64    	and.b     w8, #0x1c, w1
    2dfe:	00 28 a3    	btst.z    w0, #0x2
    2e00:	0f 00 32    	bra       Z, 0x2e20 <.L183>
    2e02:	40 c4 b3    	mov.b     #0x44, w0
    2e04:	80 c1 44    	add.b     w9, w0, w3
    2e06:	e5 cf 51    	sub.b     w3, #0x5, [w15]
    2e08:	03 00 34    	bra       LE, 0x2e10 <.L185>
    2e0a:	66 40 50    	sub.b     w0, #0x6, w0
    2e0c:	80 c1 44    	add.b     w9, w0, w3
    2e0e:	13 00 37    	bra       0x2e36 <.L187>

00002e10 <.L185>:
    2e10:	e6 cf 41    	add.b     w3, #0x6, [w15]
    2e12:	04 00 3c    	bra       GT, 0x2e1c <.L188>
    2e14:	a0 c4 b3    	mov.b     #0x4a, w0
    2e16:	80 c1 44    	add.b     w9, w0, w3
    2e18:	31 40 b3    	ior.b     #0x3, w1
    2e1a:	0d 00 37    	bra       0x2e36 <.L187>

00002e1c <.L188>:
    2e1c:	01 04 a0    	bset.b    w1, #0x0
    2e1e:	0b 00 37    	bra       0x2e36 <.L187>

00002e20 <.L183>:
    2e20:	40 c4 b3    	mov.b     #0x44, w0
    2e22:	80 c1 44    	add.b     w9, w0, w3
    2e24:	e7 cf 51    	sub.b     w3, #0x7, [w15]
    2e26:	03 00 34    	bra       LE, 0x2e2e <.L190>
    2e28:	68 40 50    	sub.b     w0, #0x8, w0
    2e2a:	80 c1 44    	add.b     w9, w0, w3
    2e2c:	01 04 a0    	bset.b    w1, #0x0

00002e2e <.L190>:
    2e2e:	ea cf 41    	add.b     w3, #0xa, [w15]
    2e30:	02 00 3c    	bra       GT, 0x2e36 <.L187>
    2e32:	ea c1 41    	add.b     w3, #0xa, w3
    2e34:	01 14 a0    	bset.b    w1, #0x1

00002e36 <.L187>:
    2e36:	03 04 e0    	cp0.b     w3
    2e38:	0d 00 34    	bra       LE, 0x2e54 <.L193>
    2e3a:	01 42 78    	mov.b     w1, w4
    2e3c:	04 54 a1    	bclr.b    w4, #0x5
    2e3e:	03 00 fb    	se        w3, w0
    2e40:	32 00 20    	mov.w     #0x3, w2
    2e42:	11 00 09    	repeat    #0x11
    2e44:	02 00 d8    	div.sw    w0, w2
    2e46:	e3 4f 50    	sub.b     w0, #0x3, [w15]
    2e48:	01 00 36    	bra       LEU, 0x2e4c <.L195>
    2e4a:	02 40 78    	mov.b     w2, w0

00002e4c <.L195>:
    2e4c:	32 c0 b3    	mov.b     #0x3, w2
    2e4e:	04 40 bc    	mul.b     0x4
    2e50:	82 c4 51    	sub.b     w3, w2, w9
    2e52:	0d 00 37    	bra       0x2e6e <.L197>

00002e54 <.L193>:
    2e54:	01 42 78    	mov.b     w1, w4
    2e56:	04 54 a0    	bset.b    w4, #0x5
    2e58:	03 00 fb    	se        w3, w0
    2e5a:	62 00 10    	subr.w    w0, #0x2, w0
    2e5c:	32 00 20    	mov.w     #0x3, w2
    2e5e:	11 00 09    	repeat    #0x11
    2e60:	02 00 d8    	div.sw    w0, w2
    2e62:	e3 4f 50    	sub.b     w0, #0x3, [w15]
    2e64:	01 00 36    	bra       LEU, 0x2e68 <.L198>
    2e66:	02 40 78    	mov.b     w2, w0

00002e68 <.L198>:
    2e68:	32 c0 b3    	mov.b     #0x3, w2
    2e6a:	04 40 bc    	mul.b     0x4
    2e6c:	82 c4 41    	add.b     w3, w2, w9

00002e6e <.L197>:
    2e6e:	c6 00 dd    	sl.w      w0, #0x6, w1
    2e70:	84 c0 70    	ior.b     w1, w4, w1
    2e72:	a0 c0 b3    	mov.b     #0xa, w0
    2e74:	3f fd 07    	rcall     0x28f4 <_as3993SingleWrite>
    2e76:	09 00 fb    	se        w9, w0
    2e78:	4f 04 be    	mov.d     [--w15], w8
    2e7a:	00 80 fa    	ulnk      
    2e7c:	00 00 06    	return    

00002e7e <_as3993GetADC>:
    2e7e:	00 00 fa    	lnk       #0x0
    2e80:	70 c8 b3    	mov.b     #0x87, w0
    2e82:	d0 fc 07    	rcall     0x2824 <_as3993SingleCommand>
    2e84:	00 14 20    	mov.w     #0x140, w0
    2e86:	01 00 20    	mov.w     #0x0, w1
    2e88:	56 0d 07    	rcall     0x4936 <___delay32>
    2e8a:	d0 c2 b3    	mov.b     #0x2d, w0
    2e8c:	fd fc 07    	rcall     0x2888 <_as3993SingleRead>
    2e8e:	00 04 e0    	cp0.b     w0
    2e90:	02 00 3d    	bra       GE, 0x2e96 <.L202>
    2e92:	00 74 a1    	bclr.b    w0, #0x7
    2e94:	02 00 37    	bra       0x2e9a <.L204>

00002e96 <.L202>:
    2e96:	00 74 a1    	bclr.b    w0, #0x7
    2e98:	00 40 ea    	neg.b     w0, w0

00002e9a <.L204>:
    2e9a:	00 00 fb    	se        w0, w0
    2e9c:	00 80 fa    	ulnk      
    2e9e:	00 00 06    	return    

00002ea0 <_as3993GetReflectedPower>:
    2ea0:	00 00 fa    	lnk       #0x0
    2ea2:	88 9f be    	mov.d     w8, [w15++]
    2ea4:	8a 9f be    	mov.d     w10, [w15++]
    2ea6:	00 40 eb    	clr.b     w0
    2ea8:	ef fc 07    	rcall     0x2888 <_as3993SingleRead>
    2eaa:	80 44 78    	mov.b     w0, w9
    2eac:	00 c1 b3    	mov.b     #0x10, w0
    2eae:	ec fc 07    	rcall     0x2888 <_as3993SingleRead>
    2eb0:	00 44 78    	mov.b     w0, w8
    2eb2:	f0 c3 b3    	mov.b     #0x3f, w0
    2eb4:	80 40 64    	and.b     w8, w0, w1
    2eb6:	00 c1 b3    	mov.b     #0x10, w0
    2eb8:	1d fd 07    	rcall     0x28f4 <_as3993SingleWrite>
    2eba:	89 40 78    	mov.b     w9, w1
    2ebc:	31 40 b3    	ior.b     #0x3, w1
    2ebe:	00 40 eb    	clr.b     w0
    2ec0:	19 fd 07    	rcall     0x28f4 <_as3993SingleWrite>
    2ec2:	60 c9 b3    	mov.b     #0x96, w0
    2ec4:	af fc 07    	rcall     0x2824 <_as3993SingleCommand>
    2ec6:	70 c9 b3    	mov.b     #0x97, w0
    2ec8:	ad fc 07    	rcall     0x2824 <_as3993SingleCommand>
    2eca:	11 c0 b3    	mov.b     #0x1, w1
    2ecc:	00 c1 b3    	mov.b     #0x10, w0
    2ece:	12 fd 07    	rcall     0x28f4 <_as3993SingleWrite>
    2ed0:	00 2c 21    	mov.w     #0x12c0, w0
    2ed2:	01 00 20    	mov.w     #0x0, w1
    2ed4:	30 0d 07    	rcall     0x4936 <___delay32>
    2ed6:	d3 ff 07    	rcall     0x2e7e <_as3993GetADC>
    2ed8:	80 45 78    	mov.b     w0, w11
    2eda:	21 c0 b3    	mov.b     #0x2, w1
    2edc:	00 c1 b3    	mov.b     #0x10, w0
    2ede:	0a fd 07    	rcall     0x28f4 <_as3993SingleWrite>
    2ee0:	00 2c 21    	mov.w     #0x12c0, w0
    2ee2:	01 00 20    	mov.w     #0x0, w1
    2ee4:	28 0d 07    	rcall     0x4936 <___delay32>
    2ee6:	cb ff 07    	rcall     0x2e7e <_as3993GetADC>
    2ee8:	00 45 78    	mov.b     w0, w10
    2eea:	60 c9 b3    	mov.b     #0x96, w0
    2eec:	9b fc 07    	rcall     0x2824 <_as3993SingleCommand>
    2eee:	88 40 78    	mov.b     w8, w1
    2ef0:	00 c1 b3    	mov.b     #0x10, w0
    2ef2:	00 fd 07    	rcall     0x28f4 <_as3993SingleWrite>
    2ef4:	89 40 78    	mov.b     w9, w1
    2ef6:	00 40 eb    	clr.b     w0
    2ef8:	fd fc 07    	rcall     0x28f4 <_as3993SingleWrite>
    2efa:	8b 80 fb    	ze        w11, w1
    2efc:	48 50 dd    	sl.w      w10, #0x8, w0
    2efe:	00 80 70    	ior.w     w1, w0, w0
    2f00:	4f 05 be    	mov.d     [--w15], w10
    2f02:	4f 04 be    	mov.d     [--w15], w8
    2f04:	00 80 fa    	ulnk      
    2f06:	00 00 06    	return    

00002f08 <_as3993GetReflectedPowerNoiseLevel>:
    2f08:	00 00 fa    	lnk       #0x0
    2f0a:	88 9f be    	mov.d     w8, [w15++]
    2f0c:	8a 9f be    	mov.d     w10, [w15++]
    2f0e:	00 40 eb    	clr.b     w0
    2f10:	bb fc 07    	rcall     0x2888 <_as3993SingleRead>
    2f12:	80 44 78    	mov.b     w0, w9
    2f14:	00 c1 b3    	mov.b     #0x10, w0
    2f16:	b8 fc 07    	rcall     0x2888 <_as3993SingleRead>
    2f18:	00 44 78    	mov.b     w0, w8
    2f1a:	f0 c3 b3    	mov.b     #0x3f, w0
    2f1c:	80 40 64    	and.b     w8, w0, w1
    2f1e:	00 c1 b3    	mov.b     #0x10, w0
    2f20:	e9 fc 07    	rcall     0x28f4 <_as3993SingleWrite>
    2f22:	89 40 78    	mov.b     w9, w1
    2f24:	01 14 a0    	bset.b    w1, #0x1
    2f26:	01 04 a1    	bclr.b    w1, #0x0
    2f28:	00 40 eb    	clr.b     w0
    2f2a:	e4 fc 07    	rcall     0x28f4 <_as3993SingleWrite>
    2f2c:	60 c9 b3    	mov.b     #0x96, w0
    2f2e:	7a fc 07    	rcall     0x2824 <_as3993SingleCommand>
    2f30:	70 c9 b3    	mov.b     #0x97, w0
    2f32:	78 fc 07    	rcall     0x2824 <_as3993SingleCommand>
    2f34:	11 c0 b3    	mov.b     #0x1, w1
    2f36:	00 c1 b3    	mov.b     #0x10, w0
    2f38:	dd fc 07    	rcall     0x28f4 <_as3993SingleWrite>
    2f3a:	00 2c 21    	mov.w     #0x12c0, w0
    2f3c:	01 00 20    	mov.w     #0x0, w1
    2f3e:	fb 0c 07    	rcall     0x4936 <___delay32>
    2f40:	9e ff 07    	rcall     0x2e7e <_as3993GetADC>
    2f42:	80 45 78    	mov.b     w0, w11
    2f44:	21 c0 b3    	mov.b     #0x2, w1
    2f46:	00 c1 b3    	mov.b     #0x10, w0
    2f48:	d5 fc 07    	rcall     0x28f4 <_as3993SingleWrite>
    2f4a:	00 2c 21    	mov.w     #0x12c0, w0
    2f4c:	01 00 20    	mov.w     #0x0, w1
    2f4e:	f3 0c 07    	rcall     0x4936 <___delay32>
    2f50:	96 ff 07    	rcall     0x2e7e <_as3993GetADC>
    2f52:	00 45 78    	mov.b     w0, w10
    2f54:	88 40 78    	mov.b     w8, w1
    2f56:	00 c1 b3    	mov.b     #0x10, w0
    2f58:	cd fc 07    	rcall     0x28f4 <_as3993SingleWrite>
    2f5a:	89 40 78    	mov.b     w9, w1
    2f5c:	00 40 eb    	clr.b     w0
    2f5e:	ca fc 07    	rcall     0x28f4 <_as3993SingleWrite>
    2f60:	8b 80 fb    	ze        w11, w1
    2f62:	48 50 dd    	sl.w      w10, #0x8, w0
    2f64:	00 80 70    	ior.w     w1, w0, w0
    2f66:	4f 05 be    	mov.d     [--w15], w10
    2f68:	4f 04 be    	mov.d     [--w15], w8
    2f6a:	00 80 fa    	ulnk      
    2f6c:	00 00 06    	return    

00002f6e <_as3993TxRxGen2Bytes>:
    2f6e:	0c 00 fa    	lnk       #0xc
    2f70:	88 9f be    	mov.d     w8, [w15++]
    2f72:	8a 9f be    	mov.d     w10, [w15++]
    2f74:	8c 9f be    	mov.d     w12, [w15++]
    2f76:	20 47 98    	mov.b     w0, [w14+2]
    2f78:	21 07 98    	mov.w     w1, [w14+4]
    2f7a:	02 04 78    	mov.w     w2, w8
    2f7c:	03 06 78    	mov.w     w3, w12
    2f7e:	34 07 98    	mov.w     w4, [w14+6]
    2f80:	05 4f 98    	mov.b     w5, [w14+8]
    2f82:	16 4f 98    	mov.b     w6, [w14+9]
    2f84:	27 4f 98    	mov.b     w7, [w14+10]
    2f86:	94 05 78    	mov.w     [w4], w11
    2f88:	67 80 45    	add.w     w11, #0x7, w0
    2f8a:	c3 06 de    	lsr.w     w0, #0x3, w13
    2f8c:	04 00 e0    	cp0.w     w4
    2f8e:	04 00 3a    	bra       NZ, 0x2f98 <.L211>
    2f90:	6e 40 90    	mov.b     [w14+6], w0
    2f92:	30 47 98    	mov.b     w0, [w14+3]
    2f94:	84 05 78    	mov.w     w4, w11
    2f96:	04 00 37    	bra       0x2fa0 <.L213>

00002f98 <.L211>:
    2f98:	be 00 90    	mov.w     [w14+6], w1
    2f9a:	80 08 eb    	clr.w     [w1]
    2f9c:	10 c0 b3    	mov.b     #0x1, w0
    2f9e:	30 47 98    	mov.b     w0, [w14+3]

00002fa0 <.L213>:
    2fa0:	0c 00 e0    	cp0.w     w12
    2fa2:	02 00 3a    	bra       NZ, 0x2fa8 <.L214>
    2fa4:	0b 00 e0    	cp0.w     w11
    2fa6:	0e 00 32    	bra       Z, 0x2fc4 <.L216>

00002fa8 <.L214>:
    2fa8:	8e 48 90    	mov.b     [w14+8], w1
    2faa:	70 c0 b3    	mov.b     #0x7, w0
    2fac:	a3 fc 07    	rcall     0x28f4 <_as3993SingleWrite>
    2fae:	0b 00 e0    	cp0.w     w11
    2fb0:	09 00 32    	bra       Z, 0x2fc4 <.L216>
    2fb2:	1b 47 98    	mov.b     w11, [w14+1]
    2fb4:	48 58 de    	lsr.w     w11, #0x8, w0
    2fb6:	6f 40 60    	and.b     w0, #0xf, w0
    2fb8:	00 44 a0    	bset.b    w0, #0x4
    2fba:	00 4f 78    	mov.b     w0, [w14]
    2fbc:	22 c0 b3    	mov.b     #0x2, w2
    2fbe:	8e 00 78    	mov.w     w14, w1
    2fc0:	a0 c3 b3    	mov.b     #0x3a, w0
    2fc2:	80 fc 07    	rcall     0x28c4 <_as3993ContinuousWrite>

00002fc4 <.L216>:
    2fc4:	08 00 e0    	cp0.w     w8
    2fc6:	31 00 32    	bra       Z, 0x302a <.L218>
    2fc8:	67 00 44    	add.w     w8, #0x7, w0
    2fca:	c3 04 de    	lsr.w     w0, #0x3, w9
    2fcc:	8a c1 b3    	mov.b     #0x18, w10
    2fce:	8a cf 54    	sub.b     w9, w10, [w15]
    2fd0:	01 00 3e    	bra       GTU, 0x2fd4 <.L222>
    2fd2:	09 45 78    	mov.b     w9, w10

00002fd4 <.L222>:
    2fd4:	e7 40 64    	and.b     w8, #0x7, w1
    2fd6:	81 c0 40    	add.b     w1, w1, w1
    2fd8:	43 40 de    	lsr.w     w8, #0x3, w0
    2fda:	44 00 dd    	sl.w      w0, #0x4, w0
    2fdc:	80 c0 70    	ior.b     w1, w0, w1
    2fde:	11 47 98    	mov.b     w1, [w14+1]
    2fe0:	47 40 de    	lsr.w     w8, #0x7, w0
    2fe2:	00 4f 78    	mov.b     w0, [w14]
    2fe4:	22 c0 b3    	mov.b     #0x2, w2
    2fe6:	8e 00 78    	mov.w     w14, w1
    2fe8:	d0 c3 b3    	mov.b     #0x3d, w0
    2fea:	6c fc 07    	rcall     0x28c4 <_as3993ContinuousWrite>
    2fec:	0a 42 78    	mov.b     w10, w4
    2fee:	ae 01 90    	mov.w     [w14+4], w3
    2ff0:	f2 c3 b3    	mov.b     #0x3f, w2
    2ff2:	11 c0 b3    	mov.b     #0x1, w1
    2ff4:	0e 80 e8    	inc2.w    w14, w0
    2ff6:	99 fc 07    	rcall     0x292a <_as3993CommandContinuousAddress>
    2ff8:	0a c4 54    	sub.b     w9, w10, w8
    2ffa:	0a 80 fb    	ze        w10, w0
    2ffc:	ae 00 90    	mov.w     [w14+4], w1
    2ffe:	00 85 40    	add.w     w1, w0, w10
    3000:	08 04 e0    	cp0.b     w8
    3002:	10 00 32    	bra       Z, 0x3024 <.L223>

00003004 <.L291>:
    3004:	29 c1 b3    	mov.b     #0x12, w9
    3006:	f0 4f 54    	sub.b     w8, #0x10, [w15]
    3008:	01 00 3e    	bra       GTU, 0x300c <.L227>
    300a:	88 44 78    	mov.b     w8, w9

0000300c <.L227>:
    300c:	00 02 20    	mov.w     #0x20, w0
    300e:	ce fc 07    	rcall     0x29ac <_as3993WaitForResponse>
    3010:	f2 bd a9    	bclr.b    0x1df2, #0x5
    3012:	09 41 78    	mov.b     w9, w2
    3014:	8a 00 78    	mov.w     w10, w1
    3016:	f0 c3 b3    	mov.b     #0x3f, w0
    3018:	55 fc 07    	rcall     0x28c4 <_as3993ContinuousWrite>
    301a:	09 44 54    	sub.b     w8, w9, w8
    301c:	09 80 fb    	ze        w9, w0
    301e:	00 05 45    	add.w     w10, w0, w10
    3020:	08 04 e0    	cp0.b     w8
    3022:	f0 ff 3a    	bra       NZ, 0x3004 <.L291>

00003024 <.L223>:
    3024:	2e 40 90    	mov.b     [w14+2], w0
    3026:	9a fd b7    	mov.b     WREG, 0x1d9a
    3028:	06 00 37    	bra       0x3036 <.L228>

0000302a <.L218>:
    302a:	2e 40 90    	mov.b     [w14+2], w0
    302c:	00 04 e0    	cp0.b     w0
    302e:	03 00 32    	bra       Z, 0x3036 <.L228>
    3030:	f9 fb 07    	rcall     0x2824 <_as3993SingleCommand>
    3032:	2e 40 90    	mov.b     [w14+2], w0
    3034:	9a fd b7    	mov.b     WREG, 0x1d9a

00003036 <.L228>:
    3036:	9a 5d e2    	cp0.b     0x1d9a
    3038:	07 00 32    	bra       Z, 0x3048 <.L230>
    303a:	ae 48 90    	mov.b     [w14+10], w1
    303c:	01 04 e0    	cp0.b     w1
    303e:	04 00 32    	bra       Z, 0x3048 <.L230>
    3040:	00 08 20    	mov.w     #0x80, w0
    3042:	b4 fc 07    	rcall     0x29ac <_as3993WaitForResponse>
    3044:	f0 f5 2f    	mov.w     #0xff5f, w0
    3046:	f2 3d b6    	and.w     0x1df2

00003048 <.L230>:
    3048:	3e 00 90    	mov.w     [w14+6], w0
    304a:	00 00 e0    	cp0.w     w0
    304c:	0e 00 32    	bra       Z, 0x306a <.L233>
    304e:	0b 00 e0    	cp0.w     w11
    3050:	0c 00 3a    	bra       NZ, 0x306a <.L233>
    3052:	0c 00 e0    	cp0.w     w12
    3054:	0c 00 3a    	bra       NZ, 0x306e <.L236>
    3056:	60 c9 b3    	mov.b     #0x96, w0
    3058:	e5 fb 07    	rcall     0x2824 <_as3993SingleCommand>
    305a:	1c 47 98    	mov.b     w12, [w14+1]
    305c:	0c 4f 78    	mov.b     w12, [w14]
    305e:	22 c0 b3    	mov.b     #0x2, w2
    3060:	8e 00 78    	mov.w     w14, w1
    3062:	a0 c3 b3    	mov.b     #0x3a, w0
    3064:	2f fc 07    	rcall     0x28c4 <_as3993ContinuousWrite>
    3066:	8c 00 78    	mov.w     w12, w1
    3068:	9a 00 37    	bra       0x319e <.L238>

0000306a <.L233>:
    306a:	0c 00 e0    	cp0.w     w12
    306c:	92 00 32    	bra       Z, 0x3192 <.L239>

0000306e <.L236>:
    306e:	8e 48 90    	mov.b     [w14+8], w1
    3070:	e1 cf 40    	add.b     w1, #0x1, [w15]
    3072:	11 00 3a    	bra       NZ, 0x3096 <.L240>
    3074:	fa fa 07    	rcall     0x266a <_getGen2IntConfig>
    3076:	10 40 90    	mov.b     [w0+1], w0
    3078:	21 03 20    	mov.w     #0x32, w1
    307a:	e6 4f 50    	sub.b     w0, #0x6, [w15]
    307c:	07 00 32    	bra       Z, 0x308c <.L246>
    307e:	ea 80 50    	sub.w     w1, #0xa, w1
    3080:	e8 4f 50    	sub.b     w0, #0x8, [w15]
    3082:	04 00 32    	bra       Z, 0x308c <.L246>
    3084:	81 07 20    	mov.w     #0x78, w1
    3086:	00 04 e0    	cp0.b     w0
    3088:	01 00 32    	bra       Z, 0x308c <.L246>
    308a:	e1 01 20    	mov.w     #0x1e, w1

0000308c <.L246>:
    308c:	30 07 20    	mov.w     #0x73, w0
    308e:	6a fc 07    	rcall     0x2964 <_as3993WaitForResponseTimed>

00003090 <.L247>:
    3090:	f2 bd ab    	btst.b    0x1df2, #0x5
    3092:	81 00 3a    	bra       NZ, 0x3196 <.L295>
    3094:	1f 00 37    	bra       0x30d4 <.L248>

00003096 <.L240>:
    3096:	30 07 20    	mov.w     #0x73, w0
    3098:	89 fc 07    	rcall     0x29ac <_as3993WaitForResponse>
    309a:	fa ff 37    	bra       0x3090 <.L247>

0000309c <.L251>:
    309c:	3e 40 90    	mov.b     [w14+3], w0
    309e:	00 04 e0    	cp0.b     w0
    30a0:	04 00 32    	bra       Z, 0x30aa <.L252>
    30a2:	f1 cf 56    	sub.b     w13, #0x11, [w15]
    30a4:	02 00 3e    	bra       GTU, 0x30aa <.L252>
    30a6:	0d 44 78    	mov.b     w13, w8
    30a8:	01 00 37    	bra       0x30ac <.L255>

000030aa <.L252>:
    30aa:	28 c1 b3    	mov.b     #0x12, w8

000030ac <.L255>:
    30ac:	8c 00 78    	mov.w     w12, w1
    30ae:	08 40 78    	mov.b     w8, w0
    30b0:	df fb 07    	rcall     0x2870 <_as3993FifoRead>
    30b2:	08 80 fb    	ze        w8, w0
    30b4:	00 06 46    	add.w     w12, w0, w12
    30b6:	88 c6 56    	sub.b     w13, w8, w13
    30b8:	88 c4 44    	add.b     w9, w8, w9
    30ba:	f2 bd a9    	bclr.b    0x1df2, #0x5
    30bc:	be 40 90    	mov.b     [w14+3], w1
    30be:	01 04 e0    	cp0.b     w1
    30c0:	02 00 32    	bra       Z, 0x30c6 <.L256>
    30c2:	0d 04 e0    	cp0.b     w13
    30c4:	64 00 32    	bra       Z, 0x318e <.L258>

000030c6 <.L256>:
    30c6:	30 07 20    	mov.w     #0x73, w0
    30c8:	71 fc 07    	rcall     0x29ac <_as3993WaitForResponse>
    30ca:	f2 bd ab    	btst.b    0x1df2, #0x5
    30cc:	04 00 32    	bra       Z, 0x30d6 <.L259>
    30ce:	f2 dd ab    	btst.b    0x1df2, #0x6
    30d0:	02 00 3a    	bra       NZ, 0x30d6 <.L259>
    30d2:	e4 ff 37    	bra       0x309c <.L251>

000030d4 <.L248>:
    30d4:	80 44 eb    	clr.b     w9

000030d6 <.L259>:
    30d6:	30 05 20    	mov.w     #0x53, w0
    30d8:	69 fc 07    	rcall     0x29ac <_as3993WaitForResponse>
    30da:	9a ef 80    	mov.w     0x1df2, w10
    30dc:	f2 3d ef    	clr.w     0x1df2
    30de:	1e 48 90    	mov.b     [w14+9], w0
    30e0:	00 04 e0    	cp0.b     w0
    30e2:	22 00 32    	bra       Z, 0x3128 <.L261>
    30e4:	71 00 65    	and.w     w10, #0x11, w0
    30e6:	20 00 3a    	bra       NZ, 0x3128 <.L261>
    30e8:	c0 fa 07    	rcall     0x266a <_getGen2IntConfig>
    30ea:	10 40 90    	mov.b     [w0+1], w0
    30ec:	e6 4f 50    	sub.b     w0, #0x6, [w15]
    30ee:	0d 00 32    	bra       Z, 0x310a <.L266>
    30f0:	03 00 3e    	bra       GTU, 0x30f8 <.L269>
    30f2:	00 04 e0    	cp0.b     w0
    30f4:	06 00 32    	bra       Z, 0x3102 <.L265>
    30f6:	14 00 37    	bra       0x3120 <.L264>

000030f8 <.L269>:
    30f8:	e8 4f 50    	sub.b     w0, #0x8, [w15]
    30fa:	0b 00 32    	bra       Z, 0x3112 <.L267>
    30fc:	e9 4f 50    	sub.b     w0, #0x9, [w15]
    30fe:	10 00 3a    	bra       NZ, 0x3120 <.L264>
    3100:	0c 00 37    	bra       0x311a <.L268>

00003102 <.L265>:
    3102:	00 c8 20    	mov.w     #0xc80, w0
    3104:	01 00 20    	mov.w     #0x0, w1
    3106:	17 0c 07    	rcall     0x4936 <___delay32>
    3108:	0b 00 37    	bra       0x3120 <.L264>

0000310a <.L266>:
    310a:	00 1e 20    	mov.w     #0x1e0, w0
    310c:	01 00 20    	mov.w     #0x0, w1
    310e:	13 0c 07    	rcall     0x4936 <___delay32>
    3110:	07 00 37    	bra       0x3120 <.L264>

00003112 <.L267>:
    3112:	00 0f 20    	mov.w     #0xf0, w0
    3114:	01 00 20    	mov.w     #0x0, w1
    3116:	0f 0c 07    	rcall     0x4936 <___delay32>
    3118:	03 00 37    	bra       0x3120 <.L264>

0000311a <.L268>:
    311a:	00 06 20    	mov.w     #0x60, w0
    311c:	01 00 20    	mov.w     #0x0, w1
    311e:	0b 0c 07    	rcall     0x4936 <___delay32>

00003120 <.L264>:
    3120:	1e 48 90    	mov.b     [w14+9], w0
    3122:	80 fb 07    	rcall     0x2824 <_as3993SingleCommand>
    3124:	1e 48 90    	mov.b     [w14+9], w0
    3126:	9a fd b7    	mov.b     WREG, 0x1d9a

00003128 <.L261>:
    3128:	90 c3 b3    	mov.b     #0x39, w0
    312a:	ae fb 07    	rcall     0x2888 <_as3993SingleRead>
    312c:	7f 44 60    	and.b     w0, #0x1f, w8
    312e:	be 40 90    	mov.b     [w14+3], w1
    3130:	01 04 e0    	cp0.b     w1
    3132:	04 00 32    	bra       Z, 0x313c <.L270>
    3134:	8d 4f 54    	sub.b     w8, w13, [w15]
    3136:	02 00 36    	bra       LEU, 0x313c <.L270>
    3138:	0a 90 a0    	bset.w    w10, #0x9
    313a:	0d 44 78    	mov.b     w13, w8

0000313c <.L270>:
    313c:	08 04 e0    	cp0.b     w8
    313e:	03 00 32    	bra       Z, 0x3146 <.L273>
    3140:	8c 00 78    	mov.w     w12, w1
    3142:	08 40 78    	mov.b     w8, w0
    3144:	95 fb 07    	rcall     0x2870 <_as3993FifoRead>

00003146 <.L273>:
    3146:	09 40 44    	add.b     w8, w9, w0
    3148:	be 00 90    	mov.w     [w14+6], w1
    314a:	01 00 e0    	cp0.w     w1
    314c:	03 00 32    	bra       Z, 0x3154 <.L275>
    314e:	00 80 fb    	ze        w0, w0
    3150:	43 00 dd    	sl.w      w0, #0x3, w0
    3152:	80 08 78    	mov.w     w0, [w1]

00003154 <.L275>:
    3154:	8a fa 07    	rcall     0x266a <_getGen2IntConfig>
    3156:	10 40 90    	mov.b     [w0+1], w0
    3158:	00 04 e0    	cp0.b     w0
    315a:	03 00 3a    	bra       NZ, 0x3162 <.L277>
    315c:	00 64 20    	mov.w     #0x640, w0
    315e:	01 00 20    	mov.w     #0x0, w1
    3160:	ea 0b 07    	rcall     0x4936 <___delay32>

00003162 <.L277>:
    3162:	0a 00 78    	mov.w     w10, w0
    3164:	90 21 b2    	and.w     #0x219, w0
    3166:	15 00 32    	bra       Z, 0x3192 <.L239>
    3168:	f1 fd 2f    	mov.w     #0xffdf, w1
    316a:	0a 08 a3    	btst.z    w10, #0x0
    316c:	18 00 3a    	bra       NZ, 0x319e <.L238>
    316e:	0a 38 a3    	btst.z    w10, #0x3
    3170:	04 00 32    	bra       Z, 0x317a <.L282>
    3172:	e1 fd 2f    	mov.w     #0xffde, w1
    3174:	10 c9 b3    	mov.b     #0x91, w0
    3176:	9a 5d e3    	cp.b      0x1d9a
    3178:	12 00 32    	bra       Z, 0x319e <.L238>

0000317a <.L282>:
    317a:	0a 98 a3    	btst.z    w10, #0x9
    317c:	08 00 3a    	bra       NZ, 0x318e <.L258>
    317e:	d1 fd 2f    	mov.w     #0xffdd, w1
    3180:	0a 88 a3    	btst.z    w10, #0x8
    3182:	0d 00 3a    	bra       NZ, 0x319e <.L238>
    3184:	b1 fd 2f    	mov.w     #0xffdb, w1
    3186:	0a a8 a3    	btst.z    w10, #0xa
    3188:	0a 00 3a    	bra       NZ, 0x319e <.L238>
    318a:	80 80 eb    	setm.w    w1
    318c:	08 00 37    	bra       0x319e <.L238>

0000318e <.L258>:
    318e:	c1 fd 2f    	mov.w     #0xffdc, w1
    3190:	06 00 37    	bra       0x319e <.L238>

00003192 <.L239>:
    3192:	80 00 eb    	clr.w     w1
    3194:	04 00 37    	bra       0x319e <.L238>

00003196 <.L295>:
    3196:	80 44 eb    	clr.b     w9
    3198:	f2 dd ab    	btst.b    0x1df2, #0x6
    319a:	80 ff 32    	bra       Z, 0x309c <.L251>
    319c:	9b ff 37    	bra       0x30d4 <.L248>

0000319e <.L238>:
    319e:	01 00 78    	mov.w     w1, w0
    31a0:	4f 06 be    	mov.d     [--w15], w12
    31a2:	4f 05 be    	mov.d     [--w15], w10
    31a4:	4f 04 be    	mov.d     [--w15], w8
    31a6:	00 80 fa    	ulnk      
    31a8:	00 00 06    	return    

000031aa <_iso6bInitialize>:
    31aa:	00 00 fa    	lnk       #0x0
    31ac:	d0 00 20    	mov.w     #0xd, w0
    31ae:	ec 0a 07    	rcall     0x4788 <_bbSetup>
    31b0:	00 00 eb    	clr.w     w0
    31b2:	00 80 fa    	ulnk      
    31b4:	00 00 06    	return    

000031b6 <_iso6bDeinitialize>:
    31b6:	00 00 fa    	lnk       #0x0
    31b8:	00 00 eb    	clr.w     w0
    31ba:	00 80 fa    	ulnk      
    31bc:	00 00 06    	return    

000031be <_iso6bOpen>:
    31be:	00 00 fa    	lnk       #0x0
    31c0:	11 c0 b3    	mov.b     #0x1, w1
    31c2:	00 40 eb    	clr.b     w0
    31c4:	97 fb 07    	rcall     0x28f4 <_as3993SingleWrite>
    31c6:	11 c0 b3    	mov.b     #0x1, w1
    31c8:	01 40 78    	mov.b     w1, w0
    31ca:	94 fb 07    	rcall     0x28f4 <_as3993SingleWrite>
    31cc:	21 c0 b3    	mov.b     #0x2, w1
    31ce:	01 40 78    	mov.b     w1, w0
    31d0:	91 fb 07    	rcall     0x28f4 <_as3993SingleWrite>
    31d2:	81 c0 b3    	mov.b     #0x8, w1
    31d4:	30 c0 b3    	mov.b     #0x3, w0
    31d6:	8e fb 07    	rcall     0x28f4 <_as3993SingleWrite>
    31d8:	b1 c1 b3    	mov.b     #0x1b, w1
    31da:	70 c0 b3    	mov.b     #0x7, w0
    31dc:	8b fb 07    	rcall     0x28f4 <_as3993SingleWrite>
    31de:	b1 c1 b3    	mov.b     #0x1b, w1
    31e0:	80 c0 b3    	mov.b     #0x8, w0
    31e2:	88 fb 07    	rcall     0x28f4 <_as3993SingleWrite>
    31e4:	80 c0 eb    	setm.b    w1
    31e6:	90 c0 b3    	mov.b     #0x9, w0
    31e8:	85 fb 07    	rcall     0x28f4 <_as3993SingleWrite>
    31ea:	f1 c8 b3    	mov.b     #0x8f, w1
    31ec:	40 c1 b3    	mov.b     #0x14, w0
    31ee:	82 fb 07    	rcall     0x28f4 <_as3993SingleWrite>
    31f0:	00 80 fa    	ulnk      
    31f2:	00 00 06    	return    

000031f4 <_iso6bClose>:
    31f4:	00 00 fa    	lnk       #0x0
    31f6:	00 80 fa    	ulnk      
    31f8:	00 00 06    	return    

000031fa <_iso6bInventoryRound>:
    31fa:	16 00 fa    	lnk       #0x16
    31fc:	88 9f be    	mov.d     w8, [w15++]
    31fe:	8a 9f be    	mov.d     w10, [w15++]
    3200:	8c 9f be    	mov.d     w12, [w15++]
    3202:	10 0f 98    	mov.w     w0, [w14+18]
    3204:	41 57 98    	mov.b     w1, [w14+20]
    3206:	02 45 78    	mov.b     w2, w10
    3208:	83 04 78    	mov.w     w3, w9
    320a:	04 44 78    	mov.b     w4, w8
    320c:	80 40 eb    	clr.b     w1
    320e:	a0 c3 b3    	mov.b     #0x3a, w0
    3210:	71 fb 07    	rcall     0x28f4 <_as3993SingleWrite>
    3212:	01 c5 b3    	mov.b     #0x50, w1
    3214:	b0 c3 b3    	mov.b     #0x3b, w0
    3216:	6e fb 07    	rcall     0x28f4 <_as3993SingleWrite>
    3218:	e6 fb 07    	rcall     0x29e6 <_as3993EnterDirectMode>
    321a:	cc 62 a9    	bclr.b    0x2cc, #0x3
    321c:	6f 01 07    	rcall     0x34fc <_iso6bResync>
    321e:	00 58 22    	mov.w     #0x2580, w0
    3220:	01 00 20    	mov.w     #0x0, w1
    3222:	89 0b 07    	rcall     0x4936 <___delay32>
    3224:	e9 01 07    	rcall     0x35f8 <_iso6bSendInitialize>
    3226:	00 58 22    	mov.w     #0x2580, w0
    3228:	01 00 20    	mov.w     #0x0, w1
    322a:	85 0b 07    	rcall     0x4936 <___delay32>
    322c:	08 41 78    	mov.b     w8, w2
    322e:	89 00 78    	mov.w     w9, w1
    3230:	0a 40 78    	mov.b     w10, w0
    3232:	f1 01 07    	rcall     0x3616 <_iso6bSendSelect>
    3234:	00 14 20    	mov.w     #0x140, w0
    3236:	01 00 20    	mov.w     #0x0, w1
    3238:	7e 0b 07    	rcall     0x4936 <___delay32>
    323a:	cc 62 a8    	bset.b    0x2cc, #0x3
    323c:	dc fb 07    	rcall     0x29f6 <_as3993ExitDirectMode>
    323e:	60 c9 b3    	mov.b     #0x96, w0
    3240:	f1 fa 07    	rcall     0x2824 <_as3993SingleCommand>
    3242:	70 c9 b3    	mov.b     #0x97, w0
    3244:	ef fa 07    	rcall     0x2824 <_as3993SingleCommand>
    3246:	30 05 20    	mov.w     #0x53, w0
    3248:	b1 fb 07    	rcall     0x29ac <_as3993WaitForResponse>
    324a:	90 ef 80    	mov.w     0x1df2, w0
    324c:	f2 3d ef    	clr.w     0x1df2
    324e:	00 08 a3    	btst.z    w0, #0x0
    3250:	63 00 3a    	bra       NZ, 0x3318 <.L10>
    3252:	00 68 a3    	btst.z    w0, #0x6
    3254:	63 00 32    	bra       Z, 0x331c <.L12>
    3256:	00 48 a3    	btst.z    w0, #0x4
    3258:	61 00 3a    	bra       NZ, 0x331c <.L12>
    325a:	90 c3 b3    	mov.b     #0x39, w0
    325c:	15 fb 07    	rcall     0x2888 <_as3993SingleRead>
    325e:	7f 40 60    	and.b     w0, #0x1f, w0
    3260:	5b 00 32    	bra       Z, 0x3318 <.L10>
    3262:	8e 00 78    	mov.w     w14, w1
    3264:	05 fb 07    	rcall     0x2870 <_as3993FifoRead>
    3266:	9e 08 90    	mov.w     [w14+18], w1
    3268:	64 80 40    	add.w     w1, #0x4, w0
    326a:	07 00 09    	repeat    #0x7
    326c:	3e 58 78    	mov.b     [w14++], [w0++]
    326e:	80 00 b1    	sub.w     #0x8, w0
    3270:	8e 00 b1    	sub.w     #0x8, w14
    3272:	12 c0 b3    	mov.b     #0x1, w2
    3274:	02 57 98    	mov.b     w2, [w14+16]
    3276:	4d 00 37    	bra       0x3312 <.L16>

00003278 <.L17>:
    3278:	8a 44 78    	mov.b     w10, w9
    327a:	00 80 eb    	setm.w    w0
    327c:	00 d6 b9    	mul.ss    w10, w0, w12

0000327e <.L18>:
    327e:	b3 fb 07    	rcall     0x29e6 <_as3993EnterDirectMode>
    3280:	cc 62 a9    	bclr.b    0x2cc, #0x3
    3282:	0b 00 01    	call      w11
    3284:	cc 62 a8    	bset.b    0x2cc, #0x3
    3286:	b7 fb 07    	rcall     0x29f6 <_as3993ExitDirectMode>
    3288:	60 c9 b3    	mov.b     #0x96, w0
    328a:	cc fa 07    	rcall     0x2824 <_as3993SingleCommand>
    328c:	70 c9 b3    	mov.b     #0x97, w0
    328e:	ca fa 07    	rcall     0x2824 <_as3993SingleCommand>
    3290:	30 05 20    	mov.w     #0x53, w0
    3292:	8c fb 07    	rcall     0x29ac <_as3993WaitForResponse>
    3294:	90 ef 80    	mov.w     0x1df2, w0
    3296:	f2 3d ef    	clr.w     0x1df2
    3298:	00 48 a3    	btst.z    w0, #0x4
    329a:	03 00 32    	bra       Z, 0x32a2 <.L19>
    329c:	08 44 e8    	inc.b     w8, w8
    329e:	cb 60 23    	mov.w     #0x360c, w11
    32a0:	31 00 37    	bra       0x3304 <.L21>

000032a2 <.L19>:
    32a2:	00 68 a3    	btst.z    w0, #0x6
    32a4:	20 00 32    	bra       Z, 0x32e6 <.L22>
    32a6:	90 c3 b3    	mov.b     #0x39, w0
    32a8:	ef fa 07    	rcall     0x2888 <_as3993SingleRead>
    32aa:	7f 40 60    	and.b     w0, #0x1f, w0
    32ac:	19 00 32    	bra       Z, 0x32e0 <.L24>
    32ae:	8e 00 78    	mov.w     w14, w1
    32b0:	df fa 07    	rcall     0x2870 <_as3993FifoRead>
    32b2:	68 01 47    	add.w     w14, #0x8, w2
    32b4:	80 40 eb    	clr.b     w1
    32b6:	0e 00 78    	mov.w     w14, w0
    32b8:	44 00 07    	rcall     0x3342 <_iso6bRead>
    32ba:	8e 50 90    	mov.b     [w14+16], w1
    32bc:	01 80 fb    	ze        w1, w0
    32be:	62 03 20    	mov.w     #0x36, w2
    32c0:	02 80 b9    	mul.ss    w0, w2, w0
    32c2:	1e 09 90    	mov.w     [w14+18], w2
    32c4:	00 00 41    	add.w     w2, w0, w0
    32c6:	64 00 40    	add.w     w0, #0x4, w0
    32c8:	07 00 09    	repeat    #0x7
    32ca:	3e 58 78    	mov.b     [w14++], [w0++]
    32cc:	80 00 b1    	sub.w     #0x8, w0
    32ce:	8e 00 b1    	sub.w     #0x8, w14
    32d0:	0e 50 90    	mov.b     [w14+16], w0
    32d2:	00 40 e8    	inc.b     w0, w0
    32d4:	00 57 98    	mov.b     w0, [w14+16]
    32d6:	08 44 e9    	dec.b     w8, w8
    32d8:	ce 50 90    	mov.b     [w14+20], w1
    32da:	80 cf 50    	sub.b     w1, w0, [w15]
    32dc:	0f 00 3a    	bra       NZ, 0x32fc <.L39>
    32de:	19 00 37    	bra       0x3312 <.L16>

000032e0 <.L24>:
    32e0:	08 44 e8    	inc.b     w8, w8
    32e2:	cb 60 23    	mov.w     #0x360c, w11
    32e4:	0f 00 37    	bra       0x3304 <.L21>

000032e6 <.L22>:
    32e6:	00 08 a3    	btst.z    w0, #0x0
    32e8:	03 00 32    	bra       Z, 0x32f0 <.L27>
    32ea:	08 44 e9    	dec.b     w8, w8
    32ec:	2b 60 23    	mov.w     #0x3602, w11
    32ee:	0a 00 37    	bra       0x3304 <.L21>

000032f0 <.L27>:
    32f0:	e0 5e 23    	mov.w     #0x35ee, w0
    32f2:	80 8f 55    	sub.w     w11, w0, [w15]
    32f4:	06 00 3a    	bra       NZ, 0x3302 <.L29>
    32f6:	08 44 e8    	inc.b     w8, w8
    32f8:	cb 60 23    	mov.w     #0x360c, w11
    32fa:	04 00 37    	bra       0x3304 <.L21>

000032fc <.L39>:
    32fc:	e9 4f 54    	sub.b     w8, #0x9, [w15]
    32fe:	09 00 3e    	bra       GTU, 0x3312 <.L16>
    3300:	16 00 37    	bra       0x332e <.L40>

00003302 <.L29>:
    3302:	eb 5e 23    	mov.w     #0x35ee, w11

00003304 <.L21>:
    3304:	e9 4f 54    	sub.b     w8, #0x9, [w15]
    3306:	05 00 3e    	bra       GTU, 0x3312 <.L16>
    3308:	89 44 e9    	dec.b     w9, w9
    330a:	0c 40 45    	add.b     w10, w12, w0
    330c:	00 40 e9    	dec.b     w0, w0
    330e:	89 4f 50    	sub.b     w0, w9, [w15]
    3310:	b6 ff 3a    	bra       NZ, 0x327e <.L18>

00003312 <.L16>:
    3312:	0e 51 90    	mov.b     [w14+16], w2
    3314:	02 00 fb    	se        w2, w0
    3316:	10 00 37    	bra       0x3338 <.L33>

00003318 <.L10>:
    3318:	00 00 eb    	clr.w     w0
    331a:	0e 00 37    	bra       0x3338 <.L33>

0000331c <.L12>:
    331c:	00 40 eb    	clr.b     w0
    331e:	00 57 98    	mov.b     w0, [w14+16]
    3320:	ce 50 90    	mov.b     [w14+20], w1
    3322:	01 04 e0    	cp0.b     w1
    3324:	f6 ff 32    	bra       Z, 0x3312 <.L16>
    3326:	29 c3 b3    	mov.b     #0x32, w9
    3328:	cb 60 23    	mov.w     #0x360c, w11
    332a:	28 c0 b3    	mov.b     #0x2, w8
    332c:	01 00 37    	bra       0x3330 <.L36>

0000332e <.L40>:
    332e:	2b 60 23    	mov.w     #0x3602, w11

00003330 <.L36>:
    3330:	09 45 e9    	dec.b     w9, w10
    3332:	e1 4f 45    	add.b     w10, #0x1, [w15]
    3334:	a1 ff 3a    	bra       NZ, 0x3278 <.L17>
    3336:	ed ff 37    	bra       0x3312 <.L16>

00003338 <.L33>:
    3338:	4f 06 be    	mov.d     [--w15], w12
    333a:	4f 05 be    	mov.d     [--w15], w10
    333c:	4f 04 be    	mov.d     [--w15], w8
    333e:	00 80 fa    	ulnk      
    3340:	00 00 06    	return    

00003342 <_iso6bRead>:
    3342:	0c 00 fa    	lnk       #0xc
    3344:	88 9f be    	mov.d     w8, [w15++]
    3346:	8a 9f be    	mov.d     w10, [w15++]
    3348:	8c 9f be    	mov.d     w12, [w15++]
    334a:	80 04 78    	mov.w     w0, w9
    334c:	81 46 78    	mov.b     w1, w13
    334e:	52 07 98    	mov.w     w2, [w14+10]
    3350:	80 40 eb    	clr.b     w1
    3352:	a0 c3 b3    	mov.b     #0x3a, w0
    3354:	cf fa 07    	rcall     0x28f4 <_as3993SingleWrite>
    3356:	01 c5 b3    	mov.b     #0x50, w1
    3358:	b0 c3 b3    	mov.b     #0x3b, w0
    335a:	cc fa 07    	rcall     0x28f4 <_as3993SingleWrite>
    335c:	44 fb 07    	rcall     0x29e6 <_as3993EnterDirectMode>
    335e:	cc 62 a9    	bclr.b    0x2cc, #0x3
    3360:	40 ca 21    	mov.w     #0x1ca4, w0
    3362:	b8 00 07    	rcall     0x34d4 <_iso6bPreparePreambleDelimiter>
    3364:	00 44 78    	mov.b     w0, w8
    3366:	00 00 fb    	se        w0, w0
    3368:	00 00 40    	add.w     w0, w0, w0
    336a:	41 ca 21    	mov.w     #0x1ca4, w1
    336c:	01 00 40    	add.w     w0, w1, w0
    336e:	c1 c0 b3    	mov.b     #0xc, w1
    3370:	da 00 07    	rcall     0x3526 <_iso6bPrepareByte>
    3372:	00 44 44    	add.b     w8, w0, w8
    3374:	0e 05 78    	mov.w     w14, w10
    3376:	c0 c0 b3    	mov.b     #0xc, w0
    3378:	00 5d 78    	mov.b     w0, [w10++]
    337a:	4c ca 21    	mov.w     #0x1ca4, w12
    337c:	e9 05 47    	add.w     w14, #0x9, w11

0000337e <.L42>:
    337e:	b9 40 78    	mov.b     [w9++], w1
    3380:	01 5d 78    	mov.b     w1, [w10++]
    3382:	08 00 fb    	se        w8, w0
    3384:	00 00 40    	add.w     w0, w0, w0
    3386:	0c 00 40    	add.w     w0, w12, w0
    3388:	ce 00 07    	rcall     0x3526 <_iso6bPrepareByte>
    338a:	00 44 44    	add.b     w8, w0, w8
    338c:	8a 8f 55    	sub.w     w11, w10, [w15]
    338e:	f7 ff 3a    	bra       NZ, 0x337e <.L42>
    3390:	1d 4f 98    	mov.b     w13, [w14+9]
    3392:	08 00 fb    	se        w8, w0
    3394:	00 00 40    	add.w     w0, w0, w0
    3396:	0c 00 40    	add.w     w0, w12, w0
    3398:	8d 40 78    	mov.b     w13, w1
    339a:	c5 00 07    	rcall     0x3526 <_iso6bPrepareByte>
    339c:	08 44 40    	add.b     w0, w8, w8
    339e:	a1 00 20    	mov.w     #0xa, w1
    33a0:	0e 00 78    	mov.w     w14, w0
    33a2:	b3 0a 07    	rcall     0x490a <_calcCrc16>
    33a4:	80 00 78    	mov.w     w0, w1
    33a6:	08 00 fb    	se        w8, w0
    33a8:	00 00 40    	add.w     w0, w0, w0
    33aa:	0c 00 40    	add.w     w0, w12, w0
    33ac:	f1 00 07    	rcall     0x3590 <_iso6bPrepareCRC>
    33ae:	00 40 44    	add.b     w8, w0, w0
    33b0:	80 00 fb    	se        w0, w1
    33b2:	0c 00 78    	mov.w     w12, w0
    33b4:	01 0a 07    	rcall     0x47b8 <_bbRun>
    33b6:	00 14 20    	mov.w     #0x140, w0
    33b8:	01 00 20    	mov.w     #0x0, w1
    33ba:	bd 0a 07    	rcall     0x4936 <___delay32>
    33bc:	cc 62 a8    	bset.b    0x2cc, #0x3
    33be:	1b fb 07    	rcall     0x29f6 <_as3993ExitDirectMode>
    33c0:	60 c9 b3    	mov.b     #0x96, w0
    33c2:	30 fa 07    	rcall     0x2824 <_as3993SingleCommand>
    33c4:	70 c9 b3    	mov.b     #0x97, w0
    33c6:	2e fa 07    	rcall     0x2824 <_as3993SingleCommand>
    33c8:	30 05 20    	mov.w     #0x53, w0
    33ca:	f0 fa 07    	rcall     0x29ac <_as3993WaitForResponse>
    33cc:	90 ef 80    	mov.w     0x1df2, w0
    33ce:	f2 3d ef    	clr.w     0x1df2
    33d0:	e1 f9 2f    	mov.w     #0xff9e, w1
    33d2:	00 08 a3    	btst.z    w0, #0x0
    33d4:	10 00 3a    	bra       NZ, 0x33f6 <.L46>
    33d6:	00 68 a3    	btst.z    w0, #0x6
    33d8:	0d 00 32    	bra       Z, 0x33f4 <.L47>
    33da:	00 48 a3    	btst.z    w0, #0x4
    33dc:	0b 00 3a    	bra       NZ, 0x33f4 <.L47>
    33de:	90 c3 b3    	mov.b     #0x39, w0
    33e0:	53 fa 07    	rcall     0x2888 <_as3993SingleRead>
    33e2:	7f 40 60    	and.b     w0, #0x1f, w0
    33e4:	c1 f9 2f    	mov.w     #0xff9c, w1
    33e6:	e8 4f 50    	sub.b     w0, #0x8, [w15]
    33e8:	06 00 3a    	bra       NZ, 0x33f6 <.L46>
    33ea:	de 00 90    	mov.w     [w14+10], w1
    33ec:	80 c0 b3    	mov.b     #0x8, w0
    33ee:	40 fa 07    	rcall     0x2870 <_as3993FifoRead>
    33f0:	80 00 eb    	clr.w     w1
    33f2:	01 00 37    	bra       0x33f6 <.L46>

000033f4 <.L47>:
    33f4:	d1 f9 2f    	mov.w     #0xff9d, w1

000033f6 <.L46>:
    33f6:	01 00 78    	mov.w     w1, w0
    33f8:	4f 06 be    	mov.d     [--w15], w12
    33fa:	4f 05 be    	mov.d     [--w15], w10
    33fc:	4f 04 be    	mov.d     [--w15], w8
    33fe:	00 80 fa    	ulnk      
    3400:	00 00 06    	return    

00003402 <_iso6bWrite>:
    3402:	10 00 fa    	lnk       #0x10
    3404:	88 9f be    	mov.d     w8, [w15++]
    3406:	8a 9f be    	mov.d     w10, [w15++]
    3408:	8c 9f be    	mov.d     w12, [w15++]
    340a:	80 04 78    	mov.w     w0, w9
    340c:	81 46 78    	mov.b     w1, w13
    340e:	42 4f 98    	mov.b     w2, [w14+12]
    3410:	73 07 98    	mov.w     w3, [w14+14]
    3412:	80 40 eb    	clr.b     w1
    3414:	a0 c3 b3    	mov.b     #0x3a, w0
    3416:	6e fa 07    	rcall     0x28f4 <_as3993SingleWrite>
    3418:	81 c1 b3    	mov.b     #0x18, w1
    341a:	b0 c3 b3    	mov.b     #0x3b, w0
    341c:	6b fa 07    	rcall     0x28f4 <_as3993SingleWrite>
    341e:	e3 fa 07    	rcall     0x29e6 <_as3993EnterDirectMode>
    3420:	cc 62 a9    	bclr.b    0x2cc, #0x3
    3422:	40 ca 21    	mov.w     #0x1ca4, w0
    3424:	57 00 07    	rcall     0x34d4 <_iso6bPreparePreambleDelimiter>
    3426:	00 44 78    	mov.b     w0, w8
    3428:	00 00 fb    	se        w0, w0
    342a:	00 00 40    	add.w     w0, w0, w0
    342c:	41 ca 21    	mov.w     #0x1ca4, w1
    342e:	01 00 40    	add.w     w0, w1, w0
    3430:	d1 c0 b3    	mov.b     #0xd, w1
    3432:	79 00 07    	rcall     0x3526 <_iso6bPrepareByte>
    3434:	00 44 44    	add.b     w8, w0, w8
    3436:	0e 05 78    	mov.w     w14, w10
    3438:	d0 c0 b3    	mov.b     #0xd, w0
    343a:	00 5d 78    	mov.b     w0, [w10++]
    343c:	4c ca 21    	mov.w     #0x1ca4, w12
    343e:	e9 05 47    	add.w     w14, #0x9, w11

00003440 <.L56>:
    3440:	b9 40 78    	mov.b     [w9++], w1
    3442:	01 5d 78    	mov.b     w1, [w10++]
    3444:	08 00 fb    	se        w8, w0
    3446:	00 00 40    	add.w     w0, w0, w0
    3448:	0c 00 40    	add.w     w0, w12, w0
    344a:	6d 00 07    	rcall     0x3526 <_iso6bPrepareByte>
    344c:	00 44 44    	add.b     w8, w0, w8
    344e:	8a 8f 55    	sub.w     w11, w10, [w15]
    3450:	f7 ff 3a    	bra       NZ, 0x3440 <.L56>
    3452:	1d 4f 98    	mov.b     w13, [w14+9]
    3454:	08 00 fb    	se        w8, w0
    3456:	00 00 40    	add.w     w0, w0, w0
    3458:	0c 00 40    	add.w     w0, w12, w0
    345a:	8d 40 78    	mov.b     w13, w1
    345c:	64 00 07    	rcall     0x3526 <_iso6bPrepareByte>
    345e:	08 44 40    	add.b     w0, w8, w8
    3460:	4e 48 90    	mov.b     [w14+12], w0
    3462:	20 4f 98    	mov.b     w0, [w14+10]
    3464:	08 00 fb    	se        w8, w0
    3466:	00 00 40    	add.w     w0, w0, w0
    3468:	0c 00 40    	add.w     w0, w12, w0
    346a:	ce 48 90    	mov.b     [w14+12], w1
    346c:	5c 00 07    	rcall     0x3526 <_iso6bPrepareByte>
    346e:	00 44 44    	add.b     w8, w0, w8
    3470:	b1 00 20    	mov.w     #0xb, w1
    3472:	0e 00 78    	mov.w     w14, w0
    3474:	4a 0a 07    	rcall     0x490a <_calcCrc16>
    3476:	80 00 78    	mov.w     w0, w1
    3478:	08 00 fb    	se        w8, w0
    347a:	00 00 40    	add.w     w0, w0, w0
    347c:	0c 00 40    	add.w     w0, w12, w0
    347e:	88 00 07    	rcall     0x3590 <_iso6bPrepareCRC>
    3480:	00 40 44    	add.b     w8, w0, w0
    3482:	80 00 fb    	se        w0, w1
    3484:	0c 00 78    	mov.w     w12, w0
    3486:	98 09 07    	rcall     0x47b8 <_bbRun>
    3488:	00 14 20    	mov.w     #0x140, w0
    348a:	01 00 20    	mov.w     #0x0, w1
    348c:	54 0a 07    	rcall     0x4936 <___delay32>
    348e:	cc 62 a8    	bset.b    0x2cc, #0x3
    3490:	b2 fa 07    	rcall     0x29f6 <_as3993ExitDirectMode>
    3492:	60 c9 b3    	mov.b     #0x96, w0
    3494:	c7 f9 07    	rcall     0x2824 <_as3993SingleCommand>
    3496:	70 c9 b3    	mov.b     #0x97, w0
    3498:	c5 f9 07    	rcall     0x2824 <_as3993SingleCommand>
    349a:	30 05 20    	mov.w     #0x53, w0
    349c:	87 fa 07    	rcall     0x29ac <_as3993WaitForResponse>
    349e:	90 ef 80    	mov.w     0x1df2, w0
    34a0:	f2 3d ef    	clr.w     0x1df2
    34a2:	e1 f9 2f    	mov.w     #0xff9e, w1
    34a4:	00 08 a3    	btst.z    w0, #0x0
    34a6:	10 00 3a    	bra       NZ, 0x34c8 <.L60>
    34a8:	00 68 a3    	btst.z    w0, #0x6
    34aa:	0d 00 32    	bra       Z, 0x34c6 <.L61>
    34ac:	00 48 a3    	btst.z    w0, #0x4
    34ae:	0b 00 3a    	bra       NZ, 0x34c6 <.L61>
    34b0:	90 c3 b3    	mov.b     #0x39, w0
    34b2:	ea f9 07    	rcall     0x2888 <_as3993SingleRead>
    34b4:	7f 40 60    	and.b     w0, #0x1f, w0
    34b6:	c1 f9 2f    	mov.w     #0xff9c, w1
    34b8:	e1 4f 50    	sub.b     w0, #0x1, [w15]
    34ba:	06 00 3a    	bra       NZ, 0x34c8 <.L60>
    34bc:	fe 00 90    	mov.w     [w14+14], w1
    34be:	10 c0 b3    	mov.b     #0x1, w0
    34c0:	d7 f9 07    	rcall     0x2870 <_as3993FifoRead>
    34c2:	80 00 eb    	clr.w     w1
    34c4:	01 00 37    	bra       0x34c8 <.L60>

000034c6 <.L61>:
    34c6:	d1 f9 2f    	mov.w     #0xff9d, w1

000034c8 <.L60>:
    34c8:	01 00 78    	mov.w     w1, w0
    34ca:	4f 06 be    	mov.d     [--w15], w12
    34cc:	4f 05 be    	mov.d     [--w15], w10
    34ce:	4f 04 be    	mov.d     [--w15], w8
    34d0:	00 80 fa    	ulnk      
    34d2:	00 00 06    	return    

000034d4 <_iso6bPreparePreambleDelimiter>:
    34d4:	00 00 fa    	lnk       #0x0
    34d6:	51 c5 b3    	mov.b     #0x55, w1
    34d8:	01 48 78    	mov.b     w1, [w0]
    34da:	00 82 e8    	inc2.w    w0, w4
    34dc:	01 4a 78    	mov.b     w1, [w4]
    34de:	e4 01 40    	add.w     w0, #0x4, w3
    34e0:	fe c0 40    	add.b     w1, #0x1e, w1
    34e2:	81 49 78    	mov.b     w1, [w3]
    34e4:	66 01 40    	add.w     w0, #0x6, w2
    34e6:	a1 c0 b3    	mov.b     #0xa, w1
    34e8:	01 49 78    	mov.b     w1, [w2]
    34ea:	81 c0 b3    	mov.b     #0x8, w1
    34ec:	11 40 98    	mov.b     w1, [w0+1]
    34ee:	11 42 98    	mov.b     w1, [w4+1]
    34f0:	91 41 98    	mov.b     w1, [w3+1]
    34f2:	40 c0 b3    	mov.b     #0x4, w0
    34f4:	10 41 98    	mov.b     w0, [w2+1]
    34f6:	40 00 20    	mov.w     #0x4, w0
    34f8:	00 80 fa    	ulnk      
    34fa:	00 00 06    	return    

000034fc <_iso6bResync>:
    34fc:	06 00 fa    	lnk       #0x6
    34fe:	c4 22 a8    	bset.b    0x2c4, #0x1
    3500:	00 e8 23    	mov.w     #0x3e80, w0
    3502:	01 00 20    	mov.w     #0x0, w1
    3504:	18 0a 07    	rcall     0x4936 <___delay32>
    3506:	a0 ca b3    	mov.b     #0xaa, w0
    3508:	00 4f 78    	mov.b     w0, [w14]
    350a:	20 47 98    	mov.b     w0, [w14+2]
    350c:	a0 c0 b3    	mov.b     #0xa, w0
    350e:	40 47 98    	mov.b     w0, [w14+4]
    3510:	80 c0 b3    	mov.b     #0x8, w0
    3512:	10 47 98    	mov.b     w0, [w14+1]
    3514:	30 47 98    	mov.b     w0, [w14+3]
    3516:	40 c0 b3    	mov.b     #0x4, w0
    3518:	50 47 98    	mov.b     w0, [w14+5]
    351a:	31 00 20    	mov.w     #0x3, w1
    351c:	0e 00 78    	mov.w     w14, w0
    351e:	4c 09 07    	rcall     0x47b8 <_bbRun>
    3520:	c4 22 a8    	bset.b    0x2c4, #0x1
    3522:	00 80 fa    	ulnk      
    3524:	00 00 06    	return    

00003526 <_iso6bPrepareByte>:
    3526:	00 00 fa    	lnk       #0x0
    3528:	00 01 78    	mov.w     w0, w2
    352a:	00 40 eb    	clr.b     w0
    352c:	00 49 78    	mov.b     w0, [w2]
    352e:	82 81 e8    	inc2.w    w2, w3
    3530:	80 49 78    	mov.b     w0, [w3]
    3532:	80 c0 b3    	mov.b     #0x8, w0
    3534:	10 41 98    	mov.b     w0, [w2+1]
    3536:	90 41 98    	mov.b     w0, [w3+1]
    3538:	01 04 e0    	cp0.b     w1
    353a:	02 00 3d    	bra       GE, 0x3540 <.L74>
    353c:	12 74 a0    	bset.b    [w2], #0x7
    353e:	01 00 37    	bra       0x3542 <.L76>

00003540 <.L74>:
    3540:	12 64 a0    	bset.b    [w2], #0x6

00003542 <.L76>:
    3542:	01 80 fb    	ze        w1, w0
    3544:	00 68 a3    	btst.z    w0, #0x6
    3546:	02 00 32    	bra       Z, 0x354c <.L77>
    3548:	12 54 a0    	bset.b    [w2], #0x5
    354a:	01 00 37    	bra       0x354e <.L79>

0000354c <.L77>:
    354c:	12 44 a0    	bset.b    [w2], #0x4

0000354e <.L79>:
    354e:	00 58 a3    	btst.z    w0, #0x5
    3550:	02 00 32    	bra       Z, 0x3556 <.L80>
    3552:	12 34 a0    	bset.b    [w2], #0x3
    3554:	01 00 37    	bra       0x3558 <.L82>

00003556 <.L80>:
    3556:	12 24 a0    	bset.b    [w2], #0x2

00003558 <.L82>:
    3558:	00 48 a3    	btst.z    w0, #0x4
    355a:	02 00 32    	bra       Z, 0x3560 <.L83>
    355c:	12 14 a0    	bset.b    [w2], #0x1
    355e:	01 00 37    	bra       0x3562 <.L85>

00003560 <.L83>:
    3560:	12 04 a0    	bset.b    [w2], #0x0

00003562 <.L85>:
    3562:	00 38 a3    	btst.z    w0, #0x3
    3564:	02 00 32    	bra       Z, 0x356a <.L86>
    3566:	13 74 a0    	bset.b    [w3], #0x7
    3568:	01 00 37    	bra       0x356c <.L88>

0000356a <.L86>:
    356a:	13 64 a0    	bset.b    [w3], #0x6

0000356c <.L88>:
    356c:	00 28 a3    	btst.z    w0, #0x2
    356e:	02 00 32    	bra       Z, 0x3574 <.L89>
    3570:	13 54 a0    	bset.b    [w3], #0x5
    3572:	01 00 37    	bra       0x3576 <.L91>

00003574 <.L89>:
    3574:	13 44 a0    	bset.b    [w3], #0x4

00003576 <.L91>:
    3576:	00 18 a3    	btst.z    w0, #0x1
    3578:	02 00 32    	bra       Z, 0x357e <.L92>
    357a:	13 34 a0    	bset.b    [w3], #0x3
    357c:	01 00 37    	bra       0x3580 <.L94>

0000357e <.L92>:
    357e:	13 24 a0    	bset.b    [w3], #0x2

00003580 <.L94>:
    3580:	01 08 a3    	btst.z    w1, #0x0
    3582:	02 00 32    	bra       Z, 0x3588 <.L95>
    3584:	13 14 a0    	bset.b    [w3], #0x1
    3586:	01 00 37    	bra       0x358a <.L97>

00003588 <.L95>:
    3588:	13 04 a0    	bset.b    [w3], #0x0

0000358a <.L97>:
    358a:	20 00 20    	mov.w     #0x2, w0
    358c:	00 80 fa    	ulnk      
    358e:	00 00 06    	return    

00003590 <_iso6bPrepareCRC>:
    3590:	00 00 fa    	lnk       #0x0
    3592:	88 9f be    	mov.d     w8, [w15++]
    3594:	00 04 78    	mov.w     w0, w8
    3596:	81 84 ea    	com.w     w1, w9
    3598:	c8 48 de    	lsr.w     w9, #0x8, w1
    359a:	c5 ff 07    	rcall     0x3526 <_iso6bPrepareByte>
    359c:	64 04 44    	add.w     w8, #0x4, w8
    359e:	89 40 78    	mov.b     w9, w1
    35a0:	08 00 78    	mov.w     w8, w0
    35a2:	c1 ff 07    	rcall     0x3526 <_iso6bPrepareByte>
    35a4:	40 00 20    	mov.w     #0x4, w0
    35a6:	4f 04 be    	mov.d     [--w15], w8
    35a8:	00 80 fa    	ulnk      
    35aa:	00 00 06    	return    

000035ac <_iso6bSendCmd>:
    35ac:	02 00 fa    	lnk       #0x2
    35ae:	88 9f be    	mov.d     w8, [w15++]
    35b0:	00 4f 78    	mov.b     w0, [w14]
    35b2:	c4 22 a8    	bset.b    0x2c4, #0x1
    35b4:	00 e8 23    	mov.w     #0x3e80, w0
    35b6:	01 00 20    	mov.w     #0x0, w1
    35b8:	be 09 07    	rcall     0x4936 <___delay32>
    35ba:	40 ca 21    	mov.w     #0x1ca4, w0
    35bc:	8b ff 07    	rcall     0x34d4 <_iso6bPreparePreambleDelimiter>
    35be:	80 44 78    	mov.b     w0, w9
    35c0:	00 00 fb    	se        w0, w0
    35c2:	00 00 40    	add.w     w0, w0, w0
    35c4:	48 ca 21    	mov.w     #0x1ca4, w8
    35c6:	08 00 40    	add.w     w0, w8, w0
    35c8:	9e 40 78    	mov.b     [w14], w1
    35ca:	ad ff 07    	rcall     0x3526 <_iso6bPrepareByte>
    35cc:	80 c4 44    	add.b     w9, w0, w9
    35ce:	11 00 20    	mov.w     #0x1, w1
    35d0:	0e 00 78    	mov.w     w14, w0
    35d2:	9b 09 07    	rcall     0x490a <_calcCrc16>
    35d4:	80 00 78    	mov.w     w0, w1
    35d6:	09 00 fb    	se        w9, w0
    35d8:	00 00 40    	add.w     w0, w0, w0
    35da:	08 00 40    	add.w     w0, w8, w0
    35dc:	d9 ff 07    	rcall     0x3590 <_iso6bPrepareCRC>
    35de:	00 c0 44    	add.b     w9, w0, w0
    35e0:	80 00 fb    	se        w0, w1
    35e2:	08 00 78    	mov.w     w8, w0
    35e4:	e9 08 07    	rcall     0x47b8 <_bbRun>
    35e6:	c4 22 a8    	bset.b    0x2c4, #0x1
    35e8:	4f 04 be    	mov.d     [--w15], w8
    35ea:	00 80 fa    	ulnk      
    35ec:	00 00 06    	return    

000035ee <_iso6bSendResend>:
    35ee:	00 00 fa    	lnk       #0x0
    35f0:	50 c1 b3    	mov.b     #0x15, w0
    35f2:	dc ff 07    	rcall     0x35ac <_iso6bSendCmd>
    35f4:	00 80 fa    	ulnk      
    35f6:	00 00 06    	return    

000035f8 <_iso6bSendInitialize>:
    35f8:	00 00 fa    	lnk       #0x0
    35fa:	a0 c0 b3    	mov.b     #0xa, w0
    35fc:	d7 ff 07    	rcall     0x35ac <_iso6bSendCmd>
    35fe:	00 80 fa    	ulnk      
    3600:	00 00 06    	return    

00003602 <_iso6bSendSuccess>:
    3602:	00 00 fa    	lnk       #0x0
    3604:	90 c0 b3    	mov.b     #0x9, w0
    3606:	d2 ff 07    	rcall     0x35ac <_iso6bSendCmd>
    3608:	00 80 fa    	ulnk      
    360a:	00 00 06    	return    

0000360c <_iso6bSendFail>:
    360c:	00 00 fa    	lnk       #0x0
    360e:	80 c0 b3    	mov.b     #0x8, w0
    3610:	cd ff 07    	rcall     0x35ac <_iso6bSendCmd>
    3612:	00 80 fa    	ulnk      
    3614:	00 00 06    	return    

00003616 <_iso6bSendSelect>:
    3616:	0c 00 fa    	lnk       #0xc
    3618:	88 9f be    	mov.d     w8, [w15++]
    361a:	8a 9f be    	mov.d     w10, [w15++]
    361c:	8c 1f 78    	mov.w     w12, [w15++]
    361e:	00 45 78    	mov.b     w0, w10
    3620:	01 06 78    	mov.w     w1, w12
    3622:	82 44 78    	mov.b     w2, w9
    3624:	40 ca 21    	mov.w     #0x1ca4, w0
    3626:	56 ff 07    	rcall     0x34d4 <_iso6bPreparePreambleDelimiter>
    3628:	80 45 78    	mov.b     w0, w11
    362a:	80 40 eb    	clr.b     w1
    362c:	01 4f 78    	mov.b     w1, [w14]
    362e:	00 00 fb    	se        w0, w0
    3630:	00 00 40    	add.w     w0, w0, w0
    3632:	48 ca 21    	mov.w     #0x1ca4, w8
    3634:	08 00 40    	add.w     w0, w8, w0
    3636:	77 ff 07    	rcall     0x3526 <_iso6bPrepareByte>
    3638:	80 c5 45    	add.b     w11, w0, w11
    363a:	19 47 98    	mov.b     w9, [w14+1]
    363c:	0b 00 fb    	se        w11, w0
    363e:	00 00 40    	add.w     w0, w0, w0
    3640:	08 00 40    	add.w     w0, w8, w0
    3642:	89 40 78    	mov.b     w9, w1
    3644:	70 ff 07    	rcall     0x3526 <_iso6bPrepareByte>
    3646:	80 c4 45    	add.b     w11, w0, w9
    3648:	2a 47 98    	mov.b     w10, [w14+2]
    364a:	09 00 fb    	se        w9, w0
    364c:	00 00 40    	add.w     w0, w0, w0
    364e:	08 00 40    	add.w     w0, w8, w0
    3650:	8a 40 78    	mov.b     w10, w1
    3652:	69 ff 07    	rcall     0x3526 <_iso6bPrepareByte>
    3654:	00 c4 44    	add.b     w9, w0, w8
    3656:	e3 04 47    	add.w     w14, #0x3, w9
    3658:	4a ca 21    	mov.w     #0x1ca4, w10
    365a:	eb 05 47    	add.w     w14, #0xb, w11

0000365c <.L112>:
    365c:	bc 40 78    	mov.b     [w12++], w1
    365e:	81 5c 78    	mov.b     w1, [w9++]
    3660:	08 00 fb    	se        w8, w0
    3662:	00 00 40    	add.w     w0, w0, w0
    3664:	0a 00 40    	add.w     w0, w10, w0
    3666:	5f ff 07    	rcall     0x3526 <_iso6bPrepareByte>
    3668:	00 44 44    	add.b     w8, w0, w8
    366a:	8b 8f 54    	sub.w     w9, w11, [w15]
    366c:	f7 ff 3a    	bra       NZ, 0x365c <.L112>
    366e:	b1 00 20    	mov.w     #0xb, w1
    3670:	0e 00 78    	mov.w     w14, w0
    3672:	4b 09 07    	rcall     0x490a <_calcCrc16>
    3674:	80 00 78    	mov.w     w0, w1
    3676:	08 00 fb    	se        w8, w0
    3678:	00 00 40    	add.w     w0, w0, w0
    367a:	0a 00 40    	add.w     w0, w10, w0
    367c:	89 ff 07    	rcall     0x3590 <_iso6bPrepareCRC>
    367e:	08 40 40    	add.b     w0, w8, w0
    3680:	80 00 fb    	se        w0, w1
    3682:	0a 00 78    	mov.w     w10, w0
    3684:	99 08 07    	rcall     0x47b8 <_bbRun>
    3686:	4f 06 78    	mov.w     [--w15], w12
    3688:	4f 05 be    	mov.d     [--w15], w10
    368a:	4f 04 be    	mov.d     [--w15], w8
    368c:	00 80 fa    	ulnk      
    368e:	00 00 06    	return    

00003690 <_handleConfig>:
    3690:	00 00 fa    	lnk       #0x0
    3692:	88 9f be    	mov.d     w8, [w15++]
    3694:	80 02 78    	mov.w     w0, w5
    3696:	01 02 78    	mov.w     w1, w4
    3698:	02 03 78    	mov.w     w2, w6
    369a:	83 04 78    	mov.w     w3, w9
    369c:	12 04 78    	mov.w     [w2], w8
    369e:	00 09 eb    	clr.w     [w2]
    36a0:	00 00 e0    	cp0.w     w0
    36a2:	26 00 32    	bra       Z, 0x36f0 <.L2>
    36a4:	20 c0 b3    	mov.b     #0x2, w0
    36a6:	91 4f 10    	subr.b    w0, [w1], [w15]
    36a8:	23 00 3a    	bra       NZ, 0x36f0 <.L2>
    36aa:	e2 8f 52    	sub.w     w5, #0x2, [w15]
    36ac:	21 00 36    	bra       LEU, 0x36f0 <.L2>
    36ae:	63 81 40    	add.w     w1, #0x3, w2
    36b0:	91 40 90    	mov.b     [w1+1], w1
    36b2:	c8 08 dd    	sl.w      w1, #0x8, w1
    36b4:	24 40 90    	mov.b     [w4+2], w0
    36b6:	00 80 fb    	ze        w0, w0
    36b8:	80 83 70    	ior.w     w1, w0, w7
    36ba:	e6 8f 52    	sub.w     w5, #0x6, [w15]
    36bc:	0e 00 36    	bra       LEU, 0x36da <.L6>
    36be:	12 81 fb    	ze        [w2], w2
    36c0:	48 11 dd    	sl.w      w2, #0x8, w2
    36c2:	44 40 90    	mov.b     [w4+4], w0
    36c4:	00 80 fb    	ze        w0, w0
    36c6:	00 01 71    	ior.w     w2, w0, w2
    36c8:	82 81 ea    	com.w     w2, w3
    36ca:	97 81 61    	and.w     w3, [w7], w3
    36cc:	d4 40 90    	mov.b     [w4+5], w1
    36ce:	c8 08 dd    	sl.w      w1, #0x8, w1
    36d0:	64 40 90    	mov.b     [w4+6], w0
    36d2:	00 80 fb    	ze        w0, w0
    36d4:	80 80 70    	ior.w     w1, w0, w1
    36d6:	01 01 61    	and.w     w2, w1, w2
    36d8:	82 8b 71    	ior.w     w3, w2, [w7]

000036da <.L6>:
    36da:	00 40 eb    	clr.b     w0
    36dc:	e1 0f 54    	sub.w     w8, #0x1, [w15]
    36de:	09 00 36    	bra       LEU, 0x36f2 <.L10>
    36e0:	17 00 78    	mov.w     [w7], w0
    36e2:	c8 00 de    	lsr.w     w0, #0x8, w1
    36e4:	81 4c 78    	mov.b     w1, [w9]
    36e6:	90 44 98    	mov.b     w0, [w9+1]
    36e8:	20 00 20    	mov.w     #0x2, w0
    36ea:	00 0b 78    	mov.w     w0, [w6]
    36ec:	00 40 eb    	clr.b     w0
    36ee:	01 00 37    	bra       0x36f2 <.L10>

000036f0 <.L2>:
    36f0:	20 c0 b3    	mov.b     #0x2, w0

000036f2 <.L10>:
    36f2:	00 80 fb    	ze        w0, w0
    36f4:	4f 04 be    	mov.d     [--w15], w8
    36f6:	00 80 fa    	ulnk      
    36f8:	00 00 06    	return    

000036fa <_handleI2c>:
    36fa:	00 00 fa    	lnk       #0x0
    36fc:	15 00 20    	mov.w     #0x1, w5
    36fe:	05 02 78    	mov.w     w5, w4
    3700:	12 01 78    	mov.w     [w2], w2
    3702:	98 08 07    	rcall     0x4834 <_i2cRxTx>
    3704:	00 80 fb    	ze        w0, w0
    3706:	00 80 fa    	ulnk      
    3708:	00 00 06    	return    

0000370a <_handleI2cConfig>:
    370a:	08 00 fa    	lnk       #0x8
    370c:	0e 00 78    	mov.w     w14, w0
    370e:	8b 08 07    	rcall     0x4826 <_i2cDeserialiseConfig>
    3710:	80 01 eb    	clr.w     w3
    3712:	0e 01 78    	mov.w     w14, w2
    3714:	d0 da 80    	mov.w     0x1b5a, w0
    3716:	e1 da 80    	mov.w     0x1b5c, w1
    3718:	89 08 07    	rcall     0x482c <_i2cInitialize>
    371a:	00 80 fb    	ze        w0, w0
    371c:	00 80 fa    	ulnk      
    371e:	00 00 06    	return    

00003720 <_handleSpi>:
    3720:	00 00 fa    	lnk       #0x0
    3722:	88 9f be    	mov.d     w8, [w15++]
    3724:	8a 1f 78    	mov.w     w10, [w15++]
    3726:	01 05 78    	mov.w     w1, w10
    3728:	83 04 78    	mov.w     w3, w9
    372a:	12 04 78    	mov.w     [w2], w8
    372c:	80 0f 54    	sub.w     w8, w0, [w15]
    372e:	01 00 31    	bra       C, 0x3732 <.L17>
    3730:	00 04 78    	mov.w     w0, w8

00003732 <.L17>:
    3732:	b4 08 07    	rcall     0x489c <_spiActivateSEN>
    3734:	08 01 78    	mov.w     w8, w2
    3736:	89 00 78    	mov.w     w9, w1
    3738:	0a 00 78    	mov.w     w10, w0
    373a:	49 02 07    	rcall     0x3bce <_spiTxRx>
    373c:	00 44 78    	mov.b     w0, w8
    373e:	b1 08 07    	rcall     0x48a2 <_spiDeactivateSEN>
    3740:	08 84 fb    	ze        w8, w8
    3742:	08 00 78    	mov.w     w8, w0
    3744:	4f 05 78    	mov.w     [--w15], w10
    3746:	4f 04 be    	mov.d     [--w15], w8
    3748:	00 80 fa    	ulnk      
    374a:	00 00 06    	return    

0000374c <_handleSpiConfig>:
    374c:	08 00 fa    	lnk       #0x8
    374e:	0e 00 78    	mov.w     w14, w0
    3750:	55 01 07    	rcall     0x39fc <_spiDeserialiseConfig>
    3752:	80 00 eb    	clr.w     w1
    3754:	0e 00 78    	mov.w     w14, w0
    3756:	6f 01 07    	rcall     0x3a36 <_spiInitialize>
    3758:	00 80 fb    	ze        w0, w0
    375a:	00 80 fa    	ulnk      
    375c:	00 00 06    	return    

0000375e <_handleReset>:
    375e:	00 00 fa    	lnk       #0x0
    3760:	91 40 78    	mov.b     [w1], w1
    3762:	e1 cf 50    	sub.b     w1, #0x1, [w15]
    3764:	04 00 32    	bra       Z, 0x376e <.L23>
    3766:	10 c0 b3    	mov.b     #0x1, w0
    3768:	e2 cf 50    	sub.b     w1, #0x2, [w15]
    376a:	12 00 3a    	bra       NZ, 0x3790 <.L25>
    376c:	10 00 37    	bra       0x378e <.L24>

0000376e <.L23>:
    376e:	95 05 07    	rcall     0x429a <_uartStreamDisconnect>
    3770:	e0 ef 80    	mov.w     0x1dfc, w0
    3772:	f1 ef 80    	mov.w     0x1dfe, w1
    3774:	60 11 b8    	mul.uu    w2, #0x0, w2
    3776:	44 06 20    	mov.w     #0x64, w4
    3778:	05 00 20    	mov.w     #0x0, w5
    377a:	60 33 b8    	mul.uu    w6, #0x0, w6
    377c:	41 e7 07    	rcall     0x600
    377e:	84 3e 20    	mov.w     #0x3e8, w4
    3780:	05 00 20    	mov.w     #0x0, w5
    3782:	60 33 b8    	mul.uu    w6, #0x0, w6
    3784:	c8 e6 07    	rcall     0x516 <___udivdi3>
    3786:	d7 08 07    	rcall     0x4936 <___delay32>
    3788:	00 00 fe    	reset     
    378a:	00 40 eb    	clr.b     w0
    378c:	01 00 37    	bra       0x3790 <.L25>

0000378e <.L24>:
    378e:	59 03 07    	rcall     0x3e42 <_applPeripheralReset>

00003790 <.L25>:
    3790:	00 80 fb    	ze        w0, w0
    3792:	00 80 fa    	ulnk      
    3794:	00 00 06    	return    

00003796 <_handleFirmwareInformation>:
    3796:	00 00 fa    	lnk       #0x0
    3798:	88 9f be    	mov.d     w8, [w15++]
    379a:	8a 1f 78    	mov.w     w10, [w15++]
    379c:	80 04 78    	mov.w     w0, w9
    379e:	01 05 78    	mov.w     w1, w10
    37a0:	5f 03 07    	rcall     0x3e60 <_applFirmwareInformation>
    37a2:	a0 e7 07    	rcall     0x6e4 <_strlen>
    37a4:	80 00 78    	mov.w     w0, w1
    37a6:	19 00 e9    	dec.w     [w9], w0
    37a8:	80 8f 50    	sub.w     w1, w0, [w15]
    37aa:	01 00 39    	bra       NC, 0x37ae <.L28>
    37ac:	80 00 78    	mov.w     w0, w1

000037ae <.L28>:
    37ae:	e0 03 20    	mov.w     #0x3e, w0
    37b0:	80 8f 50    	sub.w     w1, w0, [w15]
    37b2:	01 00 36    	bra       LEU, 0x37b6 <.L30>
    37b4:	f1 03 20    	mov.w     #0x3f, w1

000037b6 <.L30>:
    37b6:	01 04 e8    	inc.w     w1, w8
    37b8:	88 0c 78    	mov.w     w8, [w9]
    37ba:	52 03 07    	rcall     0x3e60 <_applFirmwareInformation>
    37bc:	80 00 78    	mov.w     w0, w1
    37be:	08 01 78    	mov.w     w8, w2
    37c0:	0a 00 78    	mov.w     w10, w0
    37c2:	6e e7 07    	rcall     0x6a0 <_memcpy>
    37c4:	00 00 eb    	clr.w     w0
    37c6:	4f 05 78    	mov.w     [--w15], w10
    37c8:	4f 04 be    	mov.d     [--w15], w8
    37ca:	00 80 fa    	ulnk      
    37cc:	00 00 06    	return    

000037ce <_handleFirmwareNumber>:
    37ce:	00 00 fa    	lnk       #0x0
    37d0:	32 00 20    	mov.w     #0x3, w2
    37d2:	02 08 78    	mov.w     w2, [w0]
    37d4:	a2 4b 84    	mov.w     0x8974, w2
    37d6:	b3 4b 84    	mov.w     0x8976, w3
    37d8:	40 1a de    	lsr.w     w3, #0x0, w4
    37da:	05 00 20    	mov.w     #0x0, w5
    37dc:	84 48 78    	mov.b     w4, [w1]
    37de:	48 18 dd    	sl.w      w3, #0x8, w0
    37e0:	48 11 de    	lsr.w     w2, #0x8, w2
    37e2:	02 01 70    	ior.w     w0, w2, w2
    37e4:	c8 19 de    	lsr.w     w3, #0x8, w3
    37e6:	92 40 98    	mov.b     w2, [w1+1]
    37e8:	40 97 28    	mov.w     #0x8974, w0
    37ea:	10 40 78    	mov.b     [w0], w0
    37ec:	a0 40 98    	mov.b     w0, [w1+2]
    37ee:	00 00 eb    	clr.w     w0
    37f0:	00 80 fa    	ulnk      
    37f2:	00 00 06    	return    

000037f4 <_handleEnterBootloader>:
    37f4:	00 00 fa    	lnk       #0x0
    37f6:	04 2e 07    	rcall     0x9400 <_enableBootloader>
    37f8:	00 00 eb    	clr.w     w0
    37fa:	00 80 fa    	ulnk      
    37fc:	00 00 06    	return    

000037fe <_processReceivedPackets>:
    37fe:	02 00 fa    	lnk       #0x2
    3800:	88 9f be    	mov.d     w8, [w15++]
    3802:	8a 9f be    	mov.d     w10, [w15++]
    3804:	8c 1f 78    	mov.w     w12, [w15++]
    3806:	59 71 21    	mov.w     #0x1715, w9
    3808:	00 06 eb    	clr.w     w12
    380a:	8d 00 37    	bra       0x3926 <.L38>

0000380c <.L39>:
    380c:	11 2d 21    	mov.w     #0x12d1, w1
    380e:	91 40 78    	mov.b     [w1], w1
    3810:	c8 08 dd    	sl.w      w1, #0x8, w1
    3812:	d2 d2 bf    	mov.b     0x12d2, WREG
    3814:	00 80 fb    	ze        w0, w0
    3816:	00 84 70    	ior.w     w1, w0, w8
    3818:	31 2d 21    	mov.w     #0x12d3, w1
    381a:	91 40 78    	mov.b     [w1], w1
    381c:	c8 08 dd    	sl.w      w1, #0x8, w1
    381e:	d4 d2 bf    	mov.b     0x12d4, WREG
    3820:	00 80 fb    	ze        w0, w0
    3822:	00 8f 70    	ior.w     w1, w0, [w14]
    3824:	65 81 44    	add.w     w9, #0x5, w2
    3826:	0b 2d 21    	mov.w     #0x12d0, w11
    3828:	9b 45 78    	mov.b     [w11], w11
    382a:	0b 45 78    	mov.b     w11, w10
    382c:	0a 74 a1    	bclr.b    w10, #0x7
    382e:	01 44 20    	mov.w     #0x440, w1
    3830:	81 0f 54    	sub.w     w8, w1, [w15]
    3832:	03 00 36    	bra       LEU, 0x383a <.L40>
    3834:	30 c0 b3    	mov.b     #0x3, w0
    3836:	5e fb b7    	mov.b     WREG, 0x1b5e
    3838:	01 04 78    	mov.w     w1, w8

0000383a <.L40>:
    383a:	0a 80 fb    	ze        w10, w0
    383c:	01 00 20    	mov.w     #0x0, w1
    383e:	00 06 b1    	sub.w     #0x60, w0
    3840:	01 80 b1    	subb.w    #0x0, w1
    3842:	eb 0f 50    	sub.w     w0, #0xb, [w15]
    3844:	e0 8f 58    	subb.w    w1, #0x0, [w15]
    3846:	4c 00 3e    	bra       GTU, 0x38e0 <.L42>
    3848:	00 60 01    	bra       w0
    384a:	0b 00 37    	bra       0x3862 <.L43>
    384c:	11 00 37    	bra       0x3870 <.L44>
    384e:	17 00 37    	bra       0x387e <.L45>
    3850:	1b 00 37    	bra       0x3888 <.L46>
    3852:	21 00 37    	bra       0x3896 <.L47>
    3854:	25 00 37    	bra       0x38a0 <.L48>
    3856:	29 00 37    	bra       0x38aa <.L49>
    3858:	2d 00 37    	bra       0x38b4 <.L50>
    385a:	34 00 37    	bra       0x38c4 <.L51>
    385c:	3a 00 37    	bra       0x38d2 <.L52>
    385e:	40 00 37    	bra       0x38e0 <.L42>
    3860:	2e 00 37    	bra       0x38be <.L53>

00003862 <.L43>:
    3862:	82 01 78    	mov.w     w2, w3
    3864:	0e 01 78    	mov.w     w14, w2
    3866:	51 2d 21    	mov.w     #0x12d5, w1
    3868:	08 00 78    	mov.w     w8, w0
    386a:	12 ff 07    	rcall     0x3690 <_handleConfig>
    386c:	80 40 78    	mov.b     w0, w1
    386e:	43 00 37    	bra       0x38f6 <.L55>

00003870 <.L44>:
    3870:	82 01 78    	mov.w     w2, w3
    3872:	0e 01 78    	mov.w     w14, w2
    3874:	51 2d 21    	mov.w     #0x12d5, w1
    3876:	08 00 78    	mov.w     w8, w0
    3878:	40 ff 07    	rcall     0x36fa <_handleI2c>
    387a:	80 40 78    	mov.b     w0, w1
    387c:	3c 00 37    	bra       0x38f6 <.L55>

0000387e <.L45>:
    387e:	51 2d 21    	mov.w     #0x12d5, w1
    3880:	08 00 78    	mov.w     w8, w0
    3882:	43 ff 07    	rcall     0x370a <_handleI2cConfig>
    3884:	80 40 78    	mov.b     w0, w1
    3886:	37 00 37    	bra       0x38f6 <.L55>

00003888 <.L46>:
    3888:	82 01 78    	mov.w     w2, w3
    388a:	0e 01 78    	mov.w     w14, w2
    388c:	51 2d 21    	mov.w     #0x12d5, w1
    388e:	08 00 78    	mov.w     w8, w0
    3890:	47 ff 07    	rcall     0x3720 <_handleSpi>
    3892:	80 40 78    	mov.b     w0, w1
    3894:	30 00 37    	bra       0x38f6 <.L55>

00003896 <.L47>:
    3896:	51 2d 21    	mov.w     #0x12d5, w1
    3898:	08 00 78    	mov.w     w8, w0
    389a:	58 ff 07    	rcall     0x374c <_handleSpiConfig>
    389c:	80 40 78    	mov.b     w0, w1
    389e:	2b 00 37    	bra       0x38f6 <.L55>

000038a0 <.L48>:
    38a0:	51 2d 21    	mov.w     #0x12d5, w1
    38a2:	08 00 78    	mov.w     w8, w0
    38a4:	5c ff 07    	rcall     0x375e <_handleReset>
    38a6:	80 40 78    	mov.b     w0, w1
    38a8:	26 00 37    	bra       0x38f6 <.L55>

000038aa <.L49>:
    38aa:	82 00 78    	mov.w     w2, w1
    38ac:	0e 00 78    	mov.w     w14, w0
    38ae:	73 ff 07    	rcall     0x3796 <_handleFirmwareInformation>
    38b0:	80 40 78    	mov.b     w0, w1
    38b2:	21 00 37    	bra       0x38f6 <.L55>

000038b4 <.L50>:
    38b4:	82 00 78    	mov.w     w2, w1
    38b6:	0e 00 78    	mov.w     w14, w0
    38b8:	8a ff 07    	rcall     0x37ce <_handleFirmwareNumber>
    38ba:	80 40 78    	mov.b     w0, w1
    38bc:	1c 00 37    	bra       0x38f6 <.L55>

000038be <.L53>:
    38be:	9a ff 07    	rcall     0x37f4 <_handleEnterBootloader>
    38c0:	80 40 78    	mov.b     w0, w1
    38c2:	19 00 37    	bra       0x38f6 <.L55>

000038c4 <.L51>:
    38c4:	82 01 78    	mov.w     w2, w3
    38c6:	0e 01 78    	mov.w     w14, w2
    38c8:	51 2d 21    	mov.w     #0x12d5, w1
    38ca:	08 00 78    	mov.w     w8, w0
    38cc:	f6 02 07    	rcall     0x3eba <_applWriteReg>
    38ce:	80 40 78    	mov.b     w0, w1
    38d0:	12 00 37    	bra       0x38f6 <.L55>

000038d2 <.L52>:
    38d2:	82 01 78    	mov.w     w2, w3
    38d4:	0e 01 78    	mov.w     w14, w2
    38d6:	51 2d 21    	mov.w     #0x12d5, w1
    38d8:	08 00 78    	mov.w     w8, w0
    38da:	de 02 07    	rcall     0x3e98 <_applReadReg>
    38dc:	80 40 78    	mov.b     w0, w1
    38de:	0b 00 37    	bra       0x38f6 <.L55>

000038e0 <.L42>:
    38e0:	11 c0 b3    	mov.b     #0x1, w1
    38e2:	00 c6 b3    	mov.b     #0x60, w0
    38e4:	80 4f 55    	sub.b     w10, w0, [w15]
    38e6:	07 00 3e    	bra       GTU, 0x38f6 <.L55>
    38e8:	02 02 78    	mov.w     w2, w4
    38ea:	8e 01 78    	mov.w     w14, w3
    38ec:	52 2d 21    	mov.w     #0x12d5, w2
    38ee:	88 00 78    	mov.w     w8, w1
    38f0:	0a 40 78    	mov.b     w10, w0
    38f2:	ac 02 07    	rcall     0x3e4c <_applProcessCmd>
    38f4:	80 40 78    	mov.b     w0, w1

000038f6 <.L55>:
    38f6:	1e 00 e0    	cp0.w     [w14]
    38f8:	02 00 3a    	bra       NZ, 0x38fe <.L58>
    38fa:	0b 04 e0    	cp0.b     w11
    38fc:	0e 00 35    	bra       LT, 0x391a <.L60>

000038fe <.L58>:
    38fe:	8a 4c 78    	mov.b     w10, [w9]
    3900:	00 40 eb    	clr.b     w0
    3902:	90 44 98    	mov.b     w0, [w9+1]
    3904:	a1 44 98    	mov.b     w1, [w9+2]
    3906:	1e 40 90    	mov.b     [w14+1], w0
    3908:	b0 44 98    	mov.b     w0, [w9+3]
    390a:	1e 40 78    	mov.b     [w14], w0
    390c:	c0 44 98    	mov.b     w0, [w9+4]
    390e:	1e 00 78    	mov.w     [w14], w0
    3910:	80 80 44    	add.w     w9, w0, w1
    3912:	e5 84 40    	add.w     w1, #0x5, w9
    3914:	00 00 46    	add.w     w12, w0, w0
    3916:	65 06 40    	add.w     w0, #0x5, w12
    3918:	04 00 37    	bra       0x3922 <.L61>

0000391a <.L60>:
    391a:	01 04 e0    	cp0.b     w1
    391c:	02 00 32    	bra       Z, 0x3922 <.L61>
    391e:	01 00 78    	mov.w     w1, w0
    3920:	5e fb b7    	mov.b     WREG, 0x1b5e

00003922 <.L61>:
    3922:	08 40 78    	mov.b     w8, w0
    3924:	c1 04 07    	rcall     0x42a8 <_uartStreamPacketProcessed>

00003926 <.L38>:
    3926:	cf 04 07    	rcall     0x42c6 <_uartStreamHasAnotherPacket>
    3928:	00 04 e0    	cp0.b     w0
    392a:	70 ff 3a    	bra       NZ, 0x380c <.L39>
    392c:	0c 00 78    	mov.w     w12, w0
    392e:	4f 06 78    	mov.w     [--w15], w12
    3930:	4f 05 be    	mov.d     [--w15], w10
    3932:	4f 04 be    	mov.d     [--w15], w8
    3934:	00 80 fa    	ulnk      
    3936:	00 00 06    	return    

00003938 <_processCyclic>:
    3938:	04 00 fa    	lnk       #0x4
    393a:	88 9f be    	mov.d     w8, [w15++]
    393c:	8a 1f 78    	mov.w     w10, [w15++]
    393e:	58 71 21    	mov.w     #0x1715, w8
    3940:	80 04 eb    	clr.w     w9
    3942:	00 05 eb    	clr.w     w10

00003944 <.L66>:
    3944:	0a 0f 78    	mov.w     w10, [w14]
    3946:	65 01 44    	add.w     w8, #0x5, w2
    3948:	03 44 20    	mov.w     #0x440, w3
    394a:	89 81 51    	sub.w     w3, w9, w3
    394c:	8e 00 78    	mov.w     w14, w1
    394e:	0e 80 e8    	inc2.w    w14, w0
    3950:	82 02 07    	rcall     0x3e56 <_applProcessCyclic>
    3952:	1e 00 e0    	cp0.w     [w14]
    3954:	0e 00 32    	bra       Z, 0x3972 <.L67>
    3956:	ae 40 90    	mov.b     [w14+2], w1
    3958:	01 4c 78    	mov.b     w1, [w8]
    395a:	1a 44 98    	mov.b     w10, [w8+1]
    395c:	20 44 98    	mov.b     w0, [w8+2]
    395e:	1e 40 90    	mov.b     [w14+1], w0
    3960:	30 44 98    	mov.b     w0, [w8+3]
    3962:	9e 40 78    	mov.b     [w14], w1
    3964:	41 44 98    	mov.b     w1, [w8+4]
    3966:	1e 00 78    	mov.w     [w14], w0
    3968:	80 00 44    	add.w     w8, w0, w1
    396a:	65 84 40    	add.w     w1, #0x5, w8
    396c:	00 80 44    	add.w     w9, w0, w0
    396e:	e5 04 40    	add.w     w0, #0x5, w9
    3970:	03 00 37    	bra       0x3978 <.L69>

00003972 <.L67>:
    3972:	00 04 e0    	cp0.b     w0
    3974:	01 00 32    	bra       Z, 0x3978 <.L69>
    3976:	5e fb b7    	mov.b     WREG, 0x1b5e

00003978 <.L69>:
    3978:	1e 00 e0    	cp0.w     [w14]
    397a:	e4 ff 3a    	bra       NZ, 0x3944 <.L66>
    397c:	09 00 78    	mov.w     w9, w0
    397e:	4f 05 78    	mov.w     [--w15], w10
    3980:	4f 04 be    	mov.d     [--w15], w8
    3982:	00 80 fa    	ulnk      
    3984:	00 00 06    	return    

00003986 <_StreamDispatcherInitAndConnect>:
    3986:	00 00 fa    	lnk       #0x0
    3988:	03 00 07    	rcall     0x3990 <_StreamDispatcherInit>
    398a:	84 04 07    	rcall     0x4294 <_uartStreamConnect>
    398c:	00 80 fa    	ulnk      
    398e:	00 00 06    	return    

00003990 <_StreamDispatcherInit>:
    3990:	00 00 fa    	lnk       #0x0
    3992:	88 9f be    	mov.d     w8, [w15++]
    3994:	00 04 be    	mov.d     w0, w8
    3996:	08 00 07    	rcall     0x39a8 <_StreamDispatcherGetLastError>
    3998:	d8 da 88    	mov.w     w8, 0x1b5a
    399a:	e9 da 88    	mov.w     w9, 0x1b5c
    399c:	51 71 21    	mov.w     #0x1715, w1
    399e:	00 2d 21    	mov.w     #0x12d0, w0
    39a0:	68 04 07    	rcall     0x4272 <_uartStreamInitialize>
    39a2:	4f 04 be    	mov.d     [--w15], w8
    39a4:	00 80 fa    	ulnk      
    39a6:	00 00 06    	return    

000039a8 <_StreamDispatcherGetLastError>:
    39a8:	00 00 fa    	lnk       #0x0
    39aa:	5e db bf    	mov.b     0x1b5e, WREG
    39ac:	5e 7b ef    	clr.b     0x1b5e
    39ae:	00 80 fb    	ze        w0, w0
    39b0:	00 80 fa    	ulnk      
    39b2:	00 00 06    	return    

000039b4 <_ProcessIO>:
    39b4:	00 00 fa    	lnk       #0x0
    39b6:	74 04 07    	rcall     0x42a0 <_uartStreamReady>
    39b8:	00 04 e0    	cp0.b     w0
    39ba:	07 00 32    	bra       Z, 0x39ca <.L86>
    39bc:	b6 04 07    	rcall     0x432a <_uartStreamReceive>
    39be:	00 00 e0    	cp0.w     w0
    39c0:	02 00 32    	bra       Z, 0x39c6 <.L84>
    39c2:	1d ff 07    	rcall     0x37fe <_processReceivedPackets>
    39c4:	03 05 07    	rcall     0x43cc <_uartStreamTransmit>

000039c6 <.L84>:
    39c6:	b8 ff 07    	rcall     0x3938 <_processCyclic>
    39c8:	01 05 07    	rcall     0x43cc <_uartStreamTransmit>

000039ca <.L86>:
    39ca:	00 80 fa    	ulnk      
    39cc:	00 00 06    	return    

000039ce <_spiSerialiseConfig>:
    39ce:	00 00 fa    	lnk       #0x0
    39d0:	30 41 90    	mov.b     [w0+3], w2
    39d2:	82 48 78    	mov.b     w2, [w1]
    39d4:	20 42 90    	mov.b     [w0+2], w4
    39d6:	94 40 98    	mov.b     w4, [w1+1]
    39d8:	10 01 be    	mov.d     [w0], w2
    39da:	48 1a dd    	sl.w      w3, #0x8, w4
    39dc:	48 11 de    	lsr.w     w2, #0x8, w2
    39de:	02 01 72    	ior.w     w4, w2, w2
    39e0:	c8 19 de    	lsr.w     w3, #0x8, w3
    39e2:	a2 40 98    	mov.b     w2, [w1+2]
    39e4:	10 41 78    	mov.b     [w0], w2
    39e6:	b2 40 98    	mov.b     w2, [w1+3]
    39e8:	40 42 90    	mov.b     [w0+4], w4
    39ea:	c4 40 98    	mov.b     w4, [w1+4]
    39ec:	50 41 90    	mov.b     [w0+5], w2
    39ee:	d2 40 98    	mov.b     w2, [w1+5]
    39f0:	60 42 90    	mov.b     [w0+6], w4
    39f2:	e4 40 98    	mov.b     w4, [w1+6]
    39f4:	70 40 90    	mov.b     [w0+7], w0
    39f6:	f0 40 98    	mov.b     w0, [w1+7]
    39f8:	00 80 fa    	ulnk      
    39fa:	00 00 06    	return    

000039fc <_spiDeserialiseConfig>:
    39fc:	00 00 fa    	lnk       #0x0
    39fe:	11 42 78    	mov.b     [w1], w4
    3a00:	c8 22 dd    	sl.w      w4, #0x8, w5
    3a02:	04 00 20    	mov.w     #0x0, w4
    3a04:	11 41 90    	mov.b     [w1+1], w2
    3a06:	82 81 fb    	ze        w2, w3
    3a08:	02 00 20    	mov.w     #0x0, w2
    3a0a:	02 02 72    	ior.w     w4, w2, w4
    3a0c:	83 82 72    	ior.w     w5, w3, w5
    3a0e:	21 41 90    	mov.b     [w1+2], w2
    3a10:	48 11 dd    	sl.w      w2, #0x8, w2
    3a12:	03 00 20    	mov.w     #0x0, w3
    3a14:	02 02 72    	ior.w     w4, w2, w4
    3a16:	83 82 72    	ior.w     w5, w3, w5
    3a18:	31 41 90    	mov.b     [w1+3], w2
    3a1a:	02 81 fb    	ze        w2, w2
    3a1c:	03 00 20    	mov.w     #0x0, w3
    3a1e:	02 18 72    	ior.w     w4, w2, [w0++]
    3a20:	03 90 72    	ior.w     w5, w3, [w0--]
    3a22:	41 41 90    	mov.b     [w1+4], w2
    3a24:	42 40 98    	mov.b     w2, [w0+4]
    3a26:	51 41 90    	mov.b     [w1+5], w2
    3a28:	52 40 98    	mov.b     w2, [w0+5]
    3a2a:	61 41 90    	mov.b     [w1+6], w2
    3a2c:	62 40 98    	mov.b     w2, [w0+6]
    3a2e:	f1 40 90    	mov.b     [w1+7], w1
    3a30:	71 40 98    	mov.b     w1, [w0+7]
    3a32:	00 80 fa    	ulnk      
    3a34:	00 00 06    	return    

00003a36 <_spiInitialize>:
    3a36:	04 00 fa    	lnk       #0x4
    3a38:	88 9f be    	mov.d     w8, [w15++]
    3a3a:	8a 9f be    	mov.d     w10, [w15++]
    3a3c:	8c 9f be    	mov.d     w12, [w15++]
    3a3e:	00 04 be    	mov.d     w0, w8
    3a40:	46 05 07    	rcall     0x44ce <_systemClockGetFcy>
    3a42:	00 05 be    	mov.d     w0, w10
    3a44:	08 00 e0    	cp0.w     w8
    3a46:	8f 00 32    	bra       Z, 0x3b66 <.L6>
    3a48:	48 40 90    	mov.b     [w8+4], w0
    3a4a:	e1 4f 50    	sub.b     w0, #0x1, [w15]
    3a4c:	8c 00 3e    	bra       GTU, 0x3b66 <.L6>
    3a4e:	09 00 e0    	cp0.w     w9
    3a50:	0e 00 32    	bra       Z, 0x3a6e <.L9>
    3a52:	60 dd bf    	mov.b     0x1d60, WREG
    3a54:	e0 44 98    	mov.b     w0, [w9+6]
    3a56:	11 d6 21    	mov.w     #0x1d61, w1
    3a58:	91 40 78    	mov.b     [w1], w1
    3a5a:	f1 44 98    	mov.b     w1, [w9+7]
    3a5c:	f2 d5 21    	mov.w     #0x1d5f, w2
    3a5e:	12 41 78    	mov.b     [w2], w2
    3a60:	d2 44 98    	mov.b     w2, [w9+5]
    3a62:	d0 ea 80    	mov.w     0x1d5a, w0
    3a64:	e1 ea 80    	mov.w     0x1d5c, w1
    3a66:	80 8c be    	mov.d     w0, [w9]
    3a68:	e1 d5 21    	mov.w     #0x1d5e, w1
    3a6a:	91 40 78    	mov.b     [w1], w1
    3a6c:	c1 44 98    	mov.b     w1, [w9+4]

00003a6e <.L9>:
    3a6e:	68 40 90    	mov.b     [w8+6], w0
    3a70:	60 fd b7    	mov.b     WREG, 0x1d60
    3a72:	78 40 90    	mov.b     [w8+7], w0
    3a74:	61 fd b7    	mov.b     WREG, 0x1d61
    3a76:	58 40 90    	mov.b     [w8+5], w0
    3a78:	5f fd b7    	mov.b     WREG, 0x1d5f
    3a7a:	18 01 be    	mov.d     [w8], w2
    3a7c:	d2 ea 88    	mov.w     w2, 0x1d5a
    3a7e:	e3 ea 88    	mov.w     w3, 0x1d5c
    3a80:	48 40 90    	mov.b     [w8+4], w0
    3a82:	5e fd b7    	mov.b     WREG, 0x1d5e
    3a84:	00 80 fb    	ze        w0, w0
    3a86:	43 00 dd    	sl.w      w0, #0x3, w0
    3a88:	e1 9a 28    	mov.w     #0x89ae, w1
    3a8a:	01 00 40    	add.w     w0, w1, w0
    3a8c:	00 0f 78    	mov.w     w0, [w14]
    3a8e:	10 00 78    	mov.w     [w0], w0
    3a90:	80 00 eb    	clr.w     w1
    3a92:	01 08 78    	mov.w     w1, [w0]
    3a94:	d8 ea 80    	mov.w     0x1d5a, w8
    3a96:	e9 ea 80    	mov.w     0x1d5c, w9
    3a98:	81 01 78    	mov.w     w1, w3
    3a9a:	e2 d0 21    	mov.w     #0x1d0e, w2

00003a9c <.L11>:
    3a9c:	b2 0f 14    	subr.w    w8, [w2++], [w15]
    3a9e:	a2 8f 1c    	subbr.w   w9, [w2--], [w15]
    3aa0:	05 00 3a    	bra       NZ, 0x3aac <.L12>
    3aa2:	62 b8 97    	mov.w     [w2-4], w0
    3aa4:	f2 b8 97    	mov.w     [w2-2], w1
    3aa6:	80 0f 55    	sub.w     w10, w0, [w15]
    3aa8:	81 8f 5d    	subb.w    w11, w1, [w15]
    3aaa:	05 00 32    	bra       Z, 0x3ab6 <.L32>

00003aac <.L12>:
    3aac:	83 01 e8    	inc.w     w3, w3
    3aae:	70 01 41    	add.w     w2, #0x10, w2
    3ab0:	e5 8f 51    	sub.w     w3, #0x5, [w15]
    3ab2:	5b 00 32    	bra       Z, 0x3b6a <.L35>
    3ab4:	f3 ff 37    	bra       0x3a9c <.L11>

00003ab6 <.L32>:
    3ab6:	44 18 dd    	sl.w      w3, #0x4, w0
    3ab8:	a1 d0 21    	mov.w     #0x1d0a, w1
    3aba:	01 00 40    	add.w     w0, w1, w0
    3abc:	20 01 90    	mov.w     [w0+4], w2
    3abe:	b0 01 90    	mov.w     [w0+6], w3
    3ac0:	d2 ea 88    	mov.w     w2, 0x1d5a
    3ac2:	e3 ea 88    	mov.w     w3, 0x1d5c
    3ac4:	c0 49 90    	mov.b     [w0+12], w3
    3ac6:	23 47 98    	mov.b     w3, [w14+2]
    3ac8:	70 06 90    	mov.w     [w0+14], w12
    3aca:	2f 00 37    	bra       0x3b2a <.L15>

00003acc <.L33>:
    3acc:	8c 00 20    	mov.w     #0x8, w12
    3ace:	13 00 37    	bra       0x3af6 <.L20>

00003ad0 <.L17>:
    3ad0:	2e 42 90    	mov.b     [w14+2], w4
    3ad2:	04 04 e0    	cp0.b     w4
    3ad4:	fb ff 32    	bra       Z, 0x3acc <.L33>

00003ad6 <.L18>:
    3ad6:	c2 6e dd    	sl.w      w13, #0x2, w13
    3ad8:	2e 40 90    	mov.b     [w14+2], w0
    3ada:	00 40 e9    	dec.b     w0, w0
    3adc:	20 47 98    	mov.b     w0, [w14+2]
    3ade:	61 68 b8    	mul.uu    w13, #0x1, w0
    3ae0:	08 01 b8    	mul.uu    w0, w8, w2
    3ae2:	09 80 b9    	mul.ss    w0, w9, w0
    3ae4:	80 81 41    	add.w     w3, w0, w3
    3ae6:	0a 00 be    	mov.d     w10, w0
    3ae8:	5f e4 07    	rcall     0x3a8 <___udivsi3>
    3aea:	00 06 78    	mov.w     w0, w12
    3aec:	e8 0f 50    	sub.w     w0, #0x8, [w15]
    3aee:	f0 ff 3e    	bra       GTU, 0x3ad0 <.L17>

00003af0 <.L21>:
    3af0:	0c 00 e0    	cp0.w     w12
    3af2:	01 00 3a    	bra       NZ, 0x3af6 <.L20>
    3af4:	1c 00 20    	mov.w     #0x1, w12

00003af6 <.L20>:
    3af6:	0d e1 b9    	mul.ss    w12, w13, w2
    3af8:	03 00 20    	mov.w     #0x0, w3
    3afa:	0a 00 be    	mov.d     w10, w0
    3afc:	55 e4 07    	rcall     0x3a8 <___udivsi3>
    3afe:	00 02 be    	mov.d     w0, w4
    3b00:	40 e8 80    	mov.w     0x1d08, w0
    3b02:	e4 0f 50    	sub.w     w0, #0x4, [w15]
    3b04:	01 00 36    	bra       LEU, 0x3b08 <.L23>
    3b06:	08 3d ef    	clr.w     0x1d08

00003b08 <.L23>:
    3b08:	43 e8 80    	mov.w     0x1d08, w3
    3b0a:	44 18 dd    	sl.w      w3, #0x4, w0
    3b0c:	a2 d0 21    	mov.w     #0x1d0a, w2
    3b0e:	82 00 40    	add.w     w0, w2, w1
    3b10:	c4 00 98    	mov.w     w4, [w1+8]
    3b12:	d5 00 98    	mov.w     w5, [w1+10]
    3b14:	a8 00 98    	mov.w     w8, [w1+4]
    3b16:	b9 00 98    	mov.w     w9, [w1+6]
    3b18:	ec 00 40    	add.w     w0, #0xc, w1
    3b1a:	2e 42 90    	mov.b     [w14+2], w4
    3b1c:	84 70 79    	mov.b     w4, [w1+w2]
    3b1e:	ee 00 40    	add.w     w0, #0xe, w1
    3b20:	8c 30 79    	mov.w     w12, [w1+w2]
    3b22:	02 00 40    	add.w     w0, w2, w0
    3b24:	0a 88 be    	mov.d     w10, [w0]
    3b26:	83 01 e8    	inc.w     w3, w3
    3b28:	43 e8 88    	mov.w     w3, 0x1d08

00003b2a <.L15>:
    3b2a:	1e 00 78    	mov.w     [w14], w0
    3b2c:	10 01 90    	mov.w     [w0+2], w2
    3b2e:	ae 41 90    	mov.b     [w14+2], w3
    3b30:	83 80 fb    	ze        w3, w1
    3b32:	68 00 16    	subr.w    w12, #0x8, w0
    3b34:	42 00 dd    	sl.w      w0, #0x2, w0
    3b36:	00 89 70    	ior.w     w1, w0, [w2]
    3b38:	1e 02 78    	mov.w     [w14], w4
    3b3a:	14 01 90    	mov.w     [w4+2], w2
    3b3c:	60 dd bf    	mov.b     0x1d60, WREG
    3b3e:	00 80 fb    	ze        w0, w0
    3b40:	00 00 e9    	dec.w     w0, w0
    3b42:	4f 00 de    	lsr.w     w0, #0xf, w0
    3b44:	48 00 dd    	sl.w      w0, #0x8, w0
    3b46:	12 00 70    	ior.w     w0, [w2], w0
    3b48:	11 d6 21    	mov.w     #0x1d61, w1
    3b4a:	91 40 78    	mov.b     [w1], w1
    3b4c:	81 80 fb    	ze        w1, w1
    3b4e:	c6 08 dd    	sl.w      w1, #0x6, w1
    3b50:	01 09 70    	ior.w     w0, w1, [w2]
    3b52:	a4 00 90    	mov.w     [w4+4], w1
    3b54:	10 00 20    	mov.w     #0x1, w0
    3b56:	80 08 78    	mov.w     w0, [w1]
    3b58:	14 00 90    	mov.w     [w4+2], w0
    3b5a:	10 50 a0    	bset.w    [w0], #0x5
    3b5c:	94 00 78    	mov.w     [w4], w1
    3b5e:	00 00 28    	mov.w     #0x8000, w0
    3b60:	80 08 78    	mov.w     w0, [w1]
    3b62:	00 00 eb    	clr.w     w0
    3b64:	0f 00 37    	bra       0x3b84 <.L28>

00003b66 <.L6>:
    3b66:	90 ff 2f    	mov.w     #0xfff9, w0
    3b68:	0d 00 37    	bra       0x3b84 <.L28>

00003b6a <.L35>:
    3b6a:	08 01 be    	mov.d     w8, w2
    3b6c:	0a 00 be    	mov.d     w10, w0
    3b6e:	1c e4 07    	rcall     0x3a8 <___udivsi3>
    3b70:	00 06 78    	mov.w     w0, w12
    3b72:	1d 00 20    	mov.w     #0x1, w13
    3b74:	30 c0 b3    	mov.b     #0x3, w0
    3b76:	20 47 98    	mov.b     w0, [w14+2]
    3b78:	e8 0f 56    	sub.w     w12, #0x8, [w15]
    3b7a:	ba ff 36    	bra       LEU, 0x3af0 <.L21>
    3b7c:	31 c0 b3    	mov.b     #0x3, w1
    3b7e:	21 47 98    	mov.b     w1, [w14+2]
    3b80:	1d 00 20    	mov.w     #0x1, w13
    3b82:	a9 ff 37    	bra       0x3ad6 <.L18>

00003b84 <.L28>:
    3b84:	4f 06 be    	mov.d     [--w15], w12
    3b86:	4f 05 be    	mov.d     [--w15], w10
    3b88:	4f 04 be    	mov.d     [--w15], w8
    3b8a:	00 80 fa    	ulnk      
    3b8c:	00 00 06    	return    

00003b8e <_spiDeinitialize>:
    3b8e:	00 00 fa    	lnk       #0x0
    3b90:	5e dd bf    	mov.b     0x1d5e, WREG
    3b92:	00 80 fb    	ze        w0, w0
    3b94:	43 00 dd    	sl.w      w0, #0x3, w0
    3b96:	e1 9a 28    	mov.w     #0x89ae, w1
    3b98:	01 01 40    	add.w     w0, w1, w2
    3b9a:	12 00 78    	mov.w     [w2], w0
    3b9c:	10 08 a3    	btst.z    [w0], #0x0
    3b9e:	09 00 32    	bra       Z, 0x3bb2 <.L37>
    3ba0:	32 00 90    	mov.w     [w2+6], w0
    3ba2:	10 00 78    	mov.w     [w0], w0
    3ba4:	06 00 37    	bra       0x3bb2 <.L37>

00003ba6 <.L42>:
    3ba6:	32 00 90    	mov.w     [w2+6], w0
    3ba8:	10 00 78    	mov.w     [w0], w0
    3baa:	12 00 78    	mov.w     [w2], w0
    3bac:	10 58 a3    	btst.z    [w0], #0x5
    3bae:	04 00 3a    	bra       NZ, 0x3bb8 <.L40>
    3bb0:	fa ff 37    	bra       0x3ba6 <.L42>

00003bb2 <.L37>:
    3bb2:	12 00 78    	mov.w     [w2], w0
    3bb4:	10 58 a3    	btst.z    [w0], #0x5
    3bb6:	f7 ff 32    	bra       Z, 0x3ba6 <.L42>

00003bb8 <.L40>:
    3bb8:	12 00 78    	mov.w     [w2], w0
    3bba:	10 60 a1    	bclr.w    [w0], #0x6
    3bbc:	92 00 78    	mov.w     [w2], w1
    3bbe:	00 00 eb    	clr.w     w0
    3bc0:	80 08 78    	mov.w     w0, [w1]
    3bc2:	92 00 90    	mov.w     [w2+2], w1
    3bc4:	80 08 78    	mov.w     w0, [w1]
    3bc6:	a2 00 90    	mov.w     [w2+4], w1
    3bc8:	80 08 78    	mov.w     w0, [w1]
    3bca:	00 80 fa    	ulnk      
    3bcc:	00 00 06    	return    

00003bce <_spiTxRx>:
    3bce:	00 00 fa    	lnk       #0x0
    3bd0:	88 9f be    	mov.d     w8, [w15++]
    3bd2:	00 03 be    	mov.d     w0, w6
    3bd4:	5e dd bf    	mov.b     0x1d5e, WREG
    3bd6:	00 80 fb    	ze        w0, w0
    3bd8:	43 00 dd    	sl.w      w0, #0x3, w0
    3bda:	e1 9a 28    	mov.w     #0x89ae, w1
    3bdc:	01 02 40    	add.w     w0, w1, w4
    3bde:	02 00 e0    	cp0.w     w2
    3be0:	33 00 32    	bra       Z, 0x3c48 <.L45>
    3be2:	06 00 e0    	cp0.w     w6
    3be4:	04 00 32    	bra       Z, 0x3bee <.L47>
    3be6:	b4 00 90    	mov.w     [w4+6], w1
    3be8:	16 80 fb    	ze        [w6], w0
    3bea:	80 08 78    	mov.w     w0, [w1]
    3bec:	02 00 37    	bra       0x3bf2 <.L49>

00003bee <.L47>:
    3bee:	34 00 90    	mov.w     [w4+6], w0
    3bf0:	00 08 eb    	clr.w     [w0]

00003bf2 <.L49>:
    3bf2:	18 00 20    	mov.w     #0x1, w8
    3bf4:	88 0f 51    	sub.w     w2, w8, [w15]
    3bf6:	1c 00 36    	bra       LEU, 0x3c30 <.L66>
    3bf8:	87 02 78    	mov.w     w7, w5
    3bfa:	18 00 20    	mov.w     #0x1, w8
    3bfc:	80 04 eb    	clr.w     w9

00003bfe <.L53>:
    3bfe:	06 00 e0    	cp0.w     w6
    3c00:	05 00 32    	bra       Z, 0x3c0c <.L54>
    3c02:	b4 00 90    	mov.w     [w4+6], w1
    3c04:	66 40 7c    	mov.b     [w6+w8], w0
    3c06:	00 80 fb    	ze        w0, w0
    3c08:	80 08 78    	mov.w     w0, [w1]
    3c0a:	02 00 37    	bra       0x3c10 <.L56>

00003c0c <.L54>:
    3c0c:	34 00 90    	mov.w     [w4+6], w0
    3c0e:	09 08 78    	mov.w     w9, [w0]

00003c10 <.L56>:
    3c10:	08 04 e8    	inc.w     w8, w8
    3c12:	94 00 78    	mov.w     [w4], w1
    3c14:	03 02 20    	mov.w     #0x20, w3

00003c16 <.L57>:
    3c16:	11 80 61    	and.w     w3, [w1], w0
    3c18:	fe ff 3a    	bra       NZ, 0x3c16 <.L57>
    3c1a:	07 00 e0    	cp0.w     w7
    3c1c:	04 00 32    	bra       Z, 0x3c26 <.L59>
    3c1e:	34 00 90    	mov.w     [w4+6], w0
    3c20:	10 00 78    	mov.w     [w0], w0
    3c22:	80 4a 78    	mov.b     w0, [w5]
    3c24:	02 00 37    	bra       0x3c2a <.L61>

00003c26 <.L59>:
    3c26:	34 00 90    	mov.w     [w4+6], w0
    3c28:	10 00 78    	mov.w     [w0], w0

00003c2a <.L61>:
    3c2a:	85 02 e8    	inc.w     w5, w5
    3c2c:	88 0f 51    	sub.w     w2, w8, [w15]
    3c2e:	e7 ff 3a    	bra       NZ, 0x3bfe <.L53>

00003c30 <.L66>:
    3c30:	14 00 78    	mov.w     [w4], w0
    3c32:	10 58 a3    	btst.z    [w0], #0x5
    3c34:	fd ff 3a    	bra       NZ, 0x3c30 <.L66>
    3c36:	07 00 e0    	cp0.w     w7
    3c38:	05 00 32    	bra       Z, 0x3c44 <.L63>
    3c3a:	08 80 43    	add.w     w7, w8, w0
    3c3c:	b4 00 90    	mov.w     [w4+6], w1
    3c3e:	91 00 78    	mov.w     [w1], w1
    3c40:	71 f8 9f    	mov.b     w1, [w0-1]
    3c42:	02 00 37    	bra       0x3c48 <.L45>

00003c44 <.L63>:
    3c44:	34 00 90    	mov.w     [w4+6], w0
    3c46:	10 00 78    	mov.w     [w0], w0

00003c48 <.L45>:
    3c48:	00 00 eb    	clr.w     w0
    3c4a:	4f 04 be    	mov.d     [--w15], w8
    3c4c:	00 80 fa    	ulnk      
    3c4e:	00 00 06    	return    
    3c50:	00 00 fa    	lnk       #0x0
    3c52:	5f dd bf    	mov.b     0x1d5f, WREG
    3c54:	1d 06 07    	rcall     0x4890 <_applSpiActivateSEN>
    3c56:	00 80 fa    	ulnk      
    3c58:	00 00 06    	return    
    3c5a:	00 00 fa    	lnk       #0x0
    3c5c:	5f dd bf    	mov.b     0x1d5f, WREG
    3c5e:	1b 06 07    	rcall     0x4896 <_applSpiDeactivateSEN>
    3c60:	00 80 fa    	ulnk      
    3c62:	00 00 06    	return    

00003c64 <_spiDisableBeforeSleep>:
    3c64:	00 00 fa    	lnk       #0x0

00003c66 <.L78>:
    3c66:	41 c2 bf    	mov.b     0x241, WREG
    3c68:	67 40 60    	and.b     w0, #0x7, w0
    3c6a:	fd ff 3a    	bra       NZ, 0x3c66 <.L78>

00003c6c <.L82>:
    3c6c:	61 c2 bf    	mov.b     0x261, WREG
    3c6e:	67 40 60    	and.b     w0, #0x7, w0
    3c70:	fd ff 3a    	bra       NZ, 0x3c6c <.L82>
    3c72:	41 c2 bf    	mov.b     0x241, WREG
    3c74:	00 80 fb    	ze        w0, w0
    3c76:	47 00 de    	lsr.w     w0, #0x7, w0
    3c78:	62 fd b7    	mov.b     WREG, 0x1d62
    3c7a:	61 c2 bf    	mov.b     0x261, WREG
    3c7c:	00 80 fb    	ze        w0, w0
    3c7e:	47 00 de    	lsr.w     w0, #0x7, w0
    3c80:	63 fd b7    	mov.b     WREG, 0x1d63
    3c82:	41 e2 a9    	bclr.b    0x241, #0x7
    3c84:	61 e2 a9    	bclr.b    0x261, #0x7
    3c86:	00 80 fa    	ulnk      
    3c88:	00 00 06    	return    

00003c8a <_spiEnableAfterSleep>:
    3c8a:	00 00 fa    	lnk       #0x0
    3c8c:	21 d6 21    	mov.w     #0x1d62, w1
    3c8e:	91 40 78    	mov.b     [w1], w1
    3c90:	c7 08 dd    	sl.w      w1, #0x7, w1
    3c92:	41 c2 bf    	mov.b     0x241, WREG
    3c94:	00 74 a1    	bclr.b    w0, #0x7
    3c96:	01 40 70    	ior.b     w0, w1, w0
    3c98:	41 e2 b7    	mov.b     WREG, 0x241
    3c9a:	31 d6 21    	mov.w     #0x1d63, w1
    3c9c:	91 40 78    	mov.b     [w1], w1
    3c9e:	c7 08 dd    	sl.w      w1, #0x7, w1
    3ca0:	61 c2 bf    	mov.b     0x261, WREG
    3ca2:	00 74 a1    	bclr.b    w0, #0x7
    3ca4:	01 40 70    	ior.b     w0, w1, w0
    3ca6:	61 e2 b7    	mov.b     WREG, 0x261
    3ca8:	00 80 fa    	ulnk      
    3caa:	00 00 06    	return    

00003cac <_morse_nibble>:
    3cac:	00 00 fa    	lnk       #0x0
    3cae:	88 9f be    	mov.d     w8, [w15++]
    3cb0:	8a 9f be    	mov.d     w10, [w15++]
    3cb2:	8c 1f 78    	mov.w     w12, [w15++]
    3cb4:	ef 4f 50    	sub.b     w0, #0xf, [w15]
    3cb6:	01 00 36    	bra       LEU, 0x3cba <.L2>
    3cb8:	90 c8 b3    	mov.b     #0x89, w0

00003cba <.L2>:
    3cba:	00 80 fb    	ze        w0, w0
    3cbc:	81 97 28    	mov.w     #0x8978, w1
    3cbe:	e0 c0 78    	mov.b     [w0+w1], w1
    3cc0:	01 80 fb    	ze        w1, w0
    3cc2:	45 00 de    	lsr.w     w0, #0x5, w0
    3cc4:	80 44 78    	mov.b     w0, w9
    3cc6:	00 04 e0    	cp0.b     w0
    3cc8:	19 00 32    	bra       Z, 0x3cfc <.L4>
    3cca:	00 44 78    	mov.b     w0, w8
    3ccc:	01 86 fb    	ze        w1, w12
    3cce:	00 80 eb    	setm.w    w0
    3cd0:	00 cd b9    	mul.ss    w9, w0, w10

00003cd2 <.L6>:
    3cd2:	cc 82 a9    	bclr.b    0x2cc, #0x4
    3cd4:	08 80 fb    	ze        w8, w0
    3cd6:	00 00 e9    	dec.w     w0, w0
    3cd8:	00 e0 de    	asr.w     w12, w0, w0
    3cda:	00 08 a3    	btst.z    w0, #0x0
    3cdc:	04 00 32    	bra       Z, 0x3ce6 <.L7>
    3cde:	00 d0 2d    	mov.w     #0xdd00, w0
    3ce0:	d1 06 20    	mov.w     #0x6d, w1
    3ce2:	29 06 07    	rcall     0x4936 <___delay32>
    3ce4:	03 00 37    	bra       0x3cec <.L9>

00003ce6 <.L7>:
    3ce6:	00 f0 29    	mov.w     #0x9f00, w0
    3ce8:	41 02 20    	mov.w     #0x24, w1
    3cea:	25 06 07    	rcall     0x4936 <___delay32>

00003cec <.L9>:
    3cec:	cc 82 a8    	bset.b    0x2cc, #0x4
    3cee:	00 f0 29    	mov.w     #0x9f00, w0
    3cf0:	41 02 20    	mov.w     #0x24, w1
    3cf2:	21 06 07    	rcall     0x4936 <___delay32>
    3cf4:	08 44 e9    	dec.b     w8, w8
    3cf6:	0a c0 44    	add.b     w9, w10, w0
    3cf8:	80 4f 54    	sub.b     w8, w0, [w15]
    3cfa:	eb ff 3a    	bra       NZ, 0x3cd2 <.L6>

00003cfc <.L4>:
    3cfc:	00 d0 2d    	mov.w     #0xdd00, w0
    3cfe:	d1 06 20    	mov.w     #0x6d, w1
    3d00:	1a 06 07    	rcall     0x4936 <___delay32>
    3d02:	4f 06 78    	mov.w     [--w15], w12
    3d04:	4f 05 be    	mov.d     [--w15], w10
    3d06:	4f 04 be    	mov.d     [--w15], w8
    3d08:	00 80 fa    	ulnk      
    3d0a:	00 00 06    	return    

00003d0c <_showError>:
    3d0c:	00 00 fa    	lnk       #0x0
    3d0e:	00 41 78    	mov.b     w0, w2
    3d10:	81 41 78    	mov.b     w1, w3
    3d12:	00 04 e0    	cp0.b     w0
    3d14:	07 00 3a    	bra       NZ, 0x3d24 <.L13>
    3d16:	e1 c0 60    	and.b     w1, #0x1, w1
    3d18:	81 c0 40    	add.b     w1, w1, w1
    3d1a:	cd c2 bf    	mov.b     0x2cd, WREG
    3d1c:	00 14 a1    	bclr.b    w0, #0x1
    3d1e:	01 40 70    	ior.b     w0, w1, w0
    3d20:	cd e2 b7    	mov.b     WREG, 0x2cd
    3d22:	29 00 37    	bra       0x3d76 <.L28>

00003d24 <.L13>:
    3d24:	10 c0 b3    	mov.b     #0x1, w0
    3d26:	02 08 a3    	btst.z    w2, #0x0
    3d28:	01 00 32    	bra       Z, 0x3d2c <.L18>
    3d2a:	61 c0 60    	and.b     w1, #0x1, w0

00003d2c <.L18>:
    3d2c:	e1 40 60    	and.b     w0, #0x1, w1
    3d2e:	81 c0 40    	add.b     w1, w1, w1
    3d30:	cd c2 bf    	mov.b     0x2cd, WREG
    3d32:	00 14 a1    	bclr.b    w0, #0x1
    3d34:	01 40 70    	ior.b     w0, w1, w0
    3d36:	cd e2 b7    	mov.b     WREG, 0x2cd
    3d38:	02 81 fb    	ze        w2, w2
    3d3a:	10 c0 b3    	mov.b     #0x1, w0
    3d3c:	02 18 a3    	btst.z    w2, #0x1
    3d3e:	01 00 32    	bra       Z, 0x3d42 <.L21>
    3d40:	61 c0 61    	and.b     w3, #0x1, w0

00003d42 <.L21>:
    3d42:	e1 40 60    	and.b     w0, #0x1, w1
    3d44:	c4 08 dd    	sl.w      w1, #0x4, w1
    3d46:	cc c2 bf    	mov.b     0x2cc, WREG
    3d48:	00 44 a1    	bclr.b    w0, #0x4
    3d4a:	01 40 70    	ior.b     w0, w1, w0
    3d4c:	cc e2 b7    	mov.b     WREG, 0x2cc
    3d4e:	10 c0 b3    	mov.b     #0x1, w0
    3d50:	02 28 a3    	btst.z    w2, #0x2
    3d52:	01 00 32    	bra       Z, 0x3d56 <.L24>
    3d54:	61 c0 61    	and.b     w3, #0x1, w0

00003d56 <.L24>:
    3d56:	e1 40 60    	and.b     w0, #0x1, w1
    3d58:	c4 08 dd    	sl.w      w1, #0x4, w1
    3d5a:	c4 c2 bf    	mov.b     0x2c4, WREG
    3d5c:	00 44 a1    	bclr.b    w0, #0x4
    3d5e:	01 40 70    	ior.b     w0, w1, w0
    3d60:	c4 e2 b7    	mov.b     WREG, 0x2c4
    3d62:	10 c0 b3    	mov.b     #0x1, w0
    3d64:	02 38 a3    	btst.z    w2, #0x3
    3d66:	01 00 32    	bra       Z, 0x3d6a <.L27>
    3d68:	61 c0 61    	and.b     w3, #0x1, w0

00003d6a <.L27>:
    3d6a:	e1 40 60    	and.b     w0, #0x1, w1
    3d6c:	c5 08 dd    	sl.w      w1, #0x5, w1
    3d6e:	cc c2 bf    	mov.b     0x2cc, WREG
    3d70:	00 54 a1    	bclr.b    w0, #0x5
    3d72:	01 40 70    	ior.b     w0, w1, w0
    3d74:	cc e2 b7    	mov.b     WREG, 0x2cc

00003d76 <.L28>:
    3d76:	00 80 fa    	ulnk      
    3d78:	00 00 06    	return    

00003d7a <_main>:
    3d7a:	04 00 fa    	lnk       #0x4
    3d7c:	88 9f be    	mov.d     w8, [w15++]
    3d7e:	8a 9f be    	mov.d     w10, [w15++]
    3d80:	8c 1f 78    	mov.w     w12, [w15++]
    3d82:	5c 00 07    	rcall     0x3e3c <_systemInit>
    3d84:	aa 05 07    	rcall     0x48da <_timerInit>
    3d86:	3b 04 07    	rcall     0x45fe <_platformInit>
    3d88:	45 04 07    	rcall     0x4614 <_spiInit>
    3d8a:	cd 22 a8    	bset.b    0x2cd, #0x1
    3d8c:	cc 82 a8    	bset.b    0x2cc, #0x4
    3d8e:	c4 82 a8    	bset.b    0x2c4, #0x4
    3d90:	cc a2 a8    	bset.b    0x2cc, #0x5
    3d92:	0e 02 78    	mov.w     w14, w4
    3d94:	02 20 2c    	mov.w     #0xc200, w2
    3d96:	13 00 20    	mov.w     #0x1, w3
    3d98:	00 40 22    	mov.w     #0x2400, w0
    3d9a:	41 0f 20    	mov.w     #0xf4, w1
    3d9c:	d4 01 07    	rcall     0x4146 <_uartInitialize>
    3d9e:	00 e8 23    	mov.w     #0x3e80, w0
    3da0:	01 00 20    	mov.w     #0x0, w1
    3da2:	c9 05 07    	rcall     0x4936 <___delay32>
    3da4:	40 a5 23    	mov.w     #0x3a54, w0
    3da6:	e0 8f 88    	mov.w     w0, 0x11fc
    3da8:	d0 00 20    	mov.w     #0xd, w0
    3daa:	f0 8f 88    	mov.w     w0, 0x11fe
    3dac:	40 5a 23    	mov.w     #0x35a4, w0
    3dae:	00 90 88    	mov.w     w0, 0x1200
    3db0:	d0 00 20    	mov.w     #0xd, w0
    3db2:	10 90 88    	mov.w     w0, 0x1202
    3db4:	c0 7f 23    	mov.w     #0x37fc, w0
    3db6:	20 90 88    	mov.w     w0, 0x1204
    3db8:	d0 00 20    	mov.w     #0xd, w0
    3dba:	30 90 88    	mov.w     w0, 0x1206
    3dbc:	c0 ca 23    	mov.w     #0x3cac, w0
    3dbe:	40 90 88    	mov.w     w0, 0x1208
    3dc0:	d0 00 20    	mov.w     #0xd, w0
    3dc2:	50 90 88    	mov.w     w0, 0x120a
    3dc4:	40 c0 b3    	mov.b     #0x4, w0
    3dc6:	fa f1 b7    	mov.b     WREG, 0x11fa
    3dc8:	00 e8 23    	mov.w     #0x3e80, w0
    3dca:	01 00 20    	mov.w     #0x0, w1
    3dcc:	b4 05 07    	rcall     0x4936 <___delay32>
    3dce:	e0 8f 80    	mov.w     0x11fc, w0
    3dd0:	f1 8f 80    	mov.w     0x11fe, w1
    3dd2:	4f f4 07    	rcall     0x2672 <_as3993Initialize>
    3dd4:	c0 43 88    	mov.w     w0, 0x878
    3dd6:	a3 ec 07    	rcall     0x171e <_initCommands>
    3dd8:	80 40 eb    	clr.b     w1
    3dda:	78 c8 bf    	mov.b     0x878, WREG
    3ddc:	97 ff 07    	rcall     0x3d0c <_showError>
    3dde:	e5 f9 07    	rcall     0x31aa <_iso6bInitialize>
    3de0:	00 40 22    	mov.w     #0x2400, w0
    3de2:	41 0f 20    	mov.w     #0xf4, w1
    3de4:	d5 fd 07    	rcall     0x3990 <_StreamDispatcherInit>
    3de6:	00 06 eb    	clr.w     w12
    3de8:	0f 00 37    	bra       0x3e08 <.L30>

00003dea <.L31>:
    3dea:	00 81 eb    	setm.w    w2
    3dec:	02 50 b8    	mul.uu    w10, w2, w0
    3dee:	00 82 eb    	setm.w    w4
    3df0:	04 d1 b9    	mul.ss    w10, w4, w2
    3df2:	01 01 41    	add.w     w2, w1, w2
    3df4:	04 da b9    	mul.ss    w11, w4, w4
    3df6:	84 00 41    	add.w     w2, w4, w1
    3df8:	0a 00 40    	add.w     w0, w10, w0
    3dfa:	8b 80 48    	addc.w    w1, w11, w1
    3dfc:	80 0f 54    	sub.w     w8, w0, [w15]
    3dfe:	81 8f 5c    	subb.w    w9, w1, [w15]
    3e00:	03 00 32    	bra       Z, 0x3e08 <.L30>
    3e02:	61 04 54    	sub.w     w8, #0x1, w8
    3e04:	e0 84 5c    	subb.w    w9, #0x0, w9
    3e06:	11 00 37    	bra       0x3e2a <.L33>

00003e08 <.L30>:
    3e08:	c0 43 80    	mov.w     0x878, w0
    3e0a:	0a 88 23    	mov.w     #0x3880, w10
    3e0c:	1b 00 20    	mov.w     #0x1, w11
    3e0e:	00 00 e0    	cp0.w     w0
    3e10:	02 00 3a    	bra       NZ, 0x3e16 <.L36>
    3e12:	0a 71 22    	mov.w     #0x2710, w10
    3e14:	0b 00 20    	mov.w     #0x0, w11

00003e16 <.L36>:
    3e16:	0c 00 a2    	btg.w     w12, #0x0
    3e18:	8c 40 78    	mov.b     w12, w1
    3e1a:	78 ff 07    	rcall     0x3d0c <_showError>
    3e1c:	78 08 e2    	cp0.w     0x878
    3e1e:	04 00 32    	bra       Z, 0x3e28 <.L37>
    3e20:	e0 8f 80    	mov.w     0x11fc, w0
    3e22:	f1 8f 80    	mov.w     0x11fe, w1
    3e24:	26 f4 07    	rcall     0x2672 <_as3993Initialize>
    3e26:	c0 43 88    	mov.w     w0, 0x878

00003e28 <.L37>:
    3e28:	0a 04 be    	mov.d     w10, w8

00003e2a <.L33>:
    3e2a:	c4 fd 07    	rcall     0x39b4 <_ProcessIO>
    3e2c:	dd ec 07    	rcall     0x17e8 <_doCyclicInventory>
    3e2e:	00 00 e0    	cp0.w     w0
    3e30:	dc ff 32    	bra       Z, 0x3dea <.L31>
    3e32:	0c 00 a2    	btg.w     w12, #0x0
    3e34:	8c 40 78    	mov.b     w12, w1
    3e36:	78 c8 bf    	mov.b     0x878, WREG
    3e38:	69 ff 07    	rcall     0x3d0c <_showError>
    3e3a:	d7 ff 37    	bra       0x3dea <.L31>

00003e3c <_systemInit>:
    3e3c:	00 00 fa    	lnk       #0x0
    3e3e:	00 80 fa    	ulnk      
    3e40:	00 00 06    	return    

00003e42 <_applPeripheralReset>:
    3e42:	00 00 fa    	lnk       #0x0
    3e44:	08 f7 07    	rcall     0x2c56 <_as3993Reset>
    3e46:	00 00 eb    	clr.w     w0
    3e48:	00 80 fa    	ulnk      
    3e4a:	00 00 06    	return    

00003e4c <_applProcessCmd>:
    3e4c:	00 00 fa    	lnk       #0x0
    3e4e:	fe ec 07    	rcall     0x184c <_commands>
    3e50:	00 80 fb    	ze        w0, w0
    3e52:	00 80 fa    	ulnk      
    3e54:	00 00 06    	return    

00003e56 <_applProcessCyclic>:
    3e56:	00 00 fa    	lnk       #0x0
    3e58:	25 ed 07    	rcall     0x18a4 <_sendTagData>
    3e5a:	00 80 fb    	ze        w0, w0
    3e5c:	00 80 fa    	ulnk      
    3e5e:	00 00 06    	return    

00003e60 <_applFirmwareInformation>:
    3e60:	00 00 fa    	lnk       #0x0
    3e62:	00 8f 28    	mov.w     #0x88f0, w0
    3e64:	00 80 fa    	ulnk      
    3e66:	00 00 06    	return    

00003e68 <_cmdReadReg>:
    3e68:	00 00 fa    	lnk       #0x0
    3e6a:	02 02 78    	mov.w     w2, w4
    3e6c:	92 0f 20    	mov.w     #0xf9, w2
    3e6e:	e1 0f 50    	sub.w     w0, #0x1, [w15]
    3e70:	10 00 36    	bra       LEU, 0x3e92 <.L56>
    3e72:	11 41 78    	mov.b     [w1], w2
    3e74:	02 04 e0    	cp0.b     w2
    3e76:	04 00 32    	bra       Z, 0x3e80 <.L58>
    3e78:	90 cf b3    	mov.b     #0xf9, w0
    3e7a:	e1 4f 51    	sub.b     w2, #0x1, [w15]
    3e7c:	09 00 3a    	bra       NZ, 0x3e90 <.L60>
    3e7e:	04 00 37    	bra       0x3e88 <.L59>

00003e80 <.L58>:
    3e80:	83 00 78    	mov.w     w3, w1
    3e82:	04 00 78    	mov.w     w4, w0
    3e84:	1f e7 07    	rcall     0xcc4 <_readRegisters>
    3e86:	04 00 37    	bra       0x3e90 <.L60>

00003e88 <.L59>:
    3e88:	11 40 90    	mov.b     [w1+1], w0
    3e8a:	03 01 78    	mov.w     w3, w2
    3e8c:	84 00 78    	mov.w     w4, w1
    3e8e:	94 e6 07    	rcall     0xbb8 <_readRegister>

00003e90 <.L60>:
    3e90:	00 81 fb    	ze        w0, w2

00003e92 <.L56>:
    3e92:	02 00 78    	mov.w     w2, w0
    3e94:	00 80 fa    	ulnk      
    3e96:	00 00 06    	return    

00003e98 <_applReadReg>:
    3e98:	00 00 fa    	lnk       #0x0
    3e9a:	e6 ff 07    	rcall     0x3e68 <_cmdReadReg>
    3e9c:	00 80 fb    	ze        w0, w0
    3e9e:	00 80 fa    	ulnk      
    3ea0:	00 00 06    	return    

00003ea2 <_cmdWriteReg>:
    3ea2:	00 00 fa    	lnk       #0x0
    3ea4:	01 02 78    	mov.w     w1, w4
    3ea6:	91 0f 20    	mov.w     #0xf9, w1
    3ea8:	e1 0f 50    	sub.w     w0, #0x1, [w15]
    3eaa:	04 00 36    	bra       LEU, 0x3eb4 <.L67>
    3eac:	94 40 90    	mov.b     [w4+1], w1
    3eae:	14 40 78    	mov.b     [w4], w0
    3eb0:	6b e6 07    	rcall     0xb88 <_writeRegister>
    3eb2:	80 80 fb    	ze        w0, w1

00003eb4 <.L67>:
    3eb4:	01 00 78    	mov.w     w1, w0
    3eb6:	00 80 fa    	ulnk      
    3eb8:	00 00 06    	return    

00003eba <_applWriteReg>:
    3eba:	00 00 fa    	lnk       #0x0
    3ebc:	f2 ff 07    	rcall     0x3ea2
    3ebe:	00 80 fb    	ze        w0, w0
    3ec0:	00 80 fa    	ulnk      
    3ec2:	00 00 06    	return    

00003ec4 <_bin2Hex>:
    3ec4:	00 00 fa    	lnk       #0x0
    3ec6:	00 41 78    	mov.b     w0, w2
    3ec8:	00 c3 b3    	mov.b     #0x30, w0
    3eca:	80 48 78    	mov.b     w0, [w1]
    3ecc:	80 c7 b3    	mov.b     #0x78, w0
    3ece:	90 40 98    	mov.b     w0, [w1+1]
    3ed0:	44 10 de    	lsr.w     w2, #0x4, w0
    3ed2:	6f 00 60    	and.w     w0, #0xf, w0
    3ed4:	e9 4f 50    	sub.b     w0, #0x9, [w15]
    3ed6:	03 00 3e    	bra       GTU, 0x3ede
    3ed8:	00 43 b0    	add.b     #0x30, w0
    3eda:	a0 40 98    	mov.b     w0, [w1+2]
    3edc:	02 00 37    	bra       0x3ee2 <.L4>

00003ede <.L2>:
    3ede:	70 43 b0    	add.b     #0x37, w0
    3ee0:	a0 40 98    	mov.b     w0, [w1+2]

00003ee2 <.L4>:
    3ee2:	6f 40 61    	and.b     w2, #0xf, w0
    3ee4:	e9 4f 50    	sub.b     w0, #0x9, [w15]
    3ee6:	03 00 3e    	bra       GTU, 0x3eee <.L5>
    3ee8:	00 43 b0    	add.b     #0x30, w0
    3eea:	b0 40 98    	mov.b     w0, [w1+3]
    3eec:	02 00 37    	bra       0x3ef2 <.L7>

00003eee <.L5>:
    3eee:	70 43 b0    	add.b     #0x37, w0
    3ef0:	b0 40 98    	mov.b     w0, [w1+3]

00003ef2 <.L7>:
    3ef2:	00 40 eb    	clr.b     w0
    3ef4:	c0 40 98    	mov.b     w0, [w1+4]
    3ef6:	00 80 fa    	ulnk      
    3ef8:	00 00 06    	return    

00003efa <_bin2Chars>:
    3efa:	00 00 fa    	lnk       #0x0
    3efc:	80 01 78    	mov.w     w0, w3
    3efe:	00 8f 2d    	mov.w     #0xd8f0, w0
    3f00:	00 80 41    	add.w     w3, w0, w0
    3f02:	80 43 eb    	clr.b     w7
    3f04:	07 00 33    	bra       N, 0x3f14 <.L13>
    3f06:	80 01 78    	mov.w     w0, w3
    3f08:	02 8f 2d    	mov.w     #0xd8f0, w2

00003f0a <.L12>:
    3f0a:	87 43 e8    	inc.b     w7, w7
    3f0c:	02 80 41    	add.w     w3, w2, w0
    3f0e:	02 00 33    	bra       N, 0x3f14 <.L13>
    3f10:	80 01 78    	mov.w     w0, w3
    3f12:	fb ff 37    	bra       0x3f0a <.L12>

00003f14 <.L13>:
    3f14:	80 c1 2f    	mov.w     #0xfc18, w0
    3f16:	00 80 41    	add.w     w3, w0, w0
    3f18:	00 43 eb    	clr.b     w6
    3f1a:	07 00 33    	bra       N, 0x3f2a <.L18>
    3f1c:	80 01 78    	mov.w     w0, w3
    3f1e:	82 c1 2f    	mov.w     #0xfc18, w2

00003f20 <.L17>:
    3f20:	06 43 e8    	inc.b     w6, w6
    3f22:	02 80 41    	add.w     w3, w2, w0
    3f24:	02 00 33    	bra       N, 0x3f2a <.L18>
    3f26:	80 01 78    	mov.w     w0, w3
    3f28:	fb ff 37    	bra       0x3f20 <.L17>

00003f2a <.L18>:
    3f2a:	c0 f9 2f    	mov.w     #0xff9c, w0
    3f2c:	00 81 41    	add.w     w3, w0, w2
    3f2e:	07 00 33    	bra       N, 0x3f3e <.L20>
    3f30:	00 42 eb    	clr.b     w4
    3f32:	80 01 78    	mov.w     w0, w3

00003f34 <.L22>:
    3f34:	04 42 e8    	inc.b     w4, w4
    3f36:	03 00 41    	add.w     w2, w3, w0
    3f38:	04 00 33    	bra       N, 0x3f42 <.L23>
    3f3a:	00 01 78    	mov.w     w0, w2
    3f3c:	fb ff 37    	bra       0x3f34 <.L22>

00003f3e <.L20>:
    3f3e:	03 01 78    	mov.w     w3, w2
    3f40:	00 42 eb    	clr.b     w4

00003f42 <.L23>:
    3f42:	ea 01 51    	sub.w     w2, #0xa, w3
    3f44:	80 42 eb    	clr.b     w5
    3f46:	07 00 33    	bra       N, 0x3f56 <.L27>
    3f48:	80 42 eb    	clr.b     w5

00003f4a <.L28>:
    3f4a:	85 42 e8    	inc.b     w5, w5
    3f4c:	6a 80 51    	sub.w     w3, #0xa, w0
    3f4e:	02 00 33    	bra       N, 0x3f54 <.L29>
    3f50:	80 01 78    	mov.w     w0, w3
    3f52:	fb ff 37    	bra       0x3f4a <.L28>

00003f54 <.L29>:
    3f54:	03 01 78    	mov.w     w3, w2

00003f56 <.L27>:
    3f56:	02 01 e9    	dec.w     w2, w2
    3f58:	80 41 eb    	clr.b     w3
    3f5a:	06 00 33    	bra       N, 0x3f68 <.L33>
    3f5c:	00 00 eb    	clr.w     w0
    3f5e:	02 01 e8    	inc.w     w2, w2

00003f60 <.L34>:
    3f60:	00 00 e8    	inc.w     w0, w0
    3f62:	80 0f 51    	sub.w     w2, w0, [w15]
    3f64:	fd ff 3a    	bra       NZ, 0x3f60 <.L34>
    3f66:	80 41 78    	mov.b     w0, w3

00003f68 <.L33>:
    3f68:	07 04 e0    	cp0.b     w7
    3f6a:	0e 00 32    	bra       Z, 0x3f88 <.L36>
    3f6c:	00 c3 b3    	mov.b     #0x30, w0
    3f6e:	80 c8 43    	add.b     w7, w0, [w1]
    3f70:	00 40 43    	add.b     w6, w0, w0
    3f72:	90 40 98    	mov.b     w0, [w1+1]
    3f74:	02 c3 b3    	mov.b     #0x30, w2
    3f76:	02 40 42    	add.b     w4, w2, w0
    3f78:	a0 40 98    	mov.b     w0, [w1+2]
    3f7a:	02 c0 42    	add.b     w5, w2, w0
    3f7c:	b0 40 98    	mov.b     w0, [w1+3]
    3f7e:	02 c0 41    	add.b     w3, w2, w0
    3f80:	c0 40 98    	mov.b     w0, [w1+4]
    3f82:	00 40 eb    	clr.b     w0
    3f84:	d0 40 98    	mov.b     w0, [w1+5]
    3f86:	2e 00 37    	bra       0x3fe4

00003f88 <.L36>:
    3f88:	06 04 e0    	cp0.b     w6
    3f8a:	0c 00 32    	bra       Z, 0x3fa4 <.L39>
    3f8c:	00 c3 b3    	mov.b     #0x30, w0
    3f8e:	80 48 43    	add.b     w6, w0, [w1]
    3f90:	00 40 42    	add.b     w4, w0, w0
    3f92:	90 40 98    	mov.b     w0, [w1+1]
    3f94:	02 c3 b3    	mov.b     #0x30, w2
    3f96:	02 c0 42    	add.b     w5, w2, w0
    3f98:	a0 40 98    	mov.b     w0, [w1+2]
    3f9a:	02 c0 41    	add.b     w3, w2, w0
    3f9c:	b0 40 98    	mov.b     w0, [w1+3]
    3f9e:	00 40 eb    	clr.b     w0
    3fa0:	c0 40 98    	mov.b     w0, [w1+4]
    3fa2:	20 00 37    	bra       0x3fe4

00003fa4 <.L39>:
    3fa4:	04 04 e0    	cp0.b     w4
    3fa6:	0a 00 32    	bra       Z, 0x3fbc <.L41>
    3fa8:	00 c3 b3    	mov.b     #0x30, w0
    3faa:	80 48 42    	add.b     w4, w0, [w1]
    3fac:	00 c0 42    	add.b     w5, w0, w0
    3fae:	90 40 98    	mov.b     w0, [w1+1]
    3fb0:	02 c3 b3    	mov.b     #0x30, w2
    3fb2:	02 c0 41    	add.b     w3, w2, w0
    3fb4:	a0 40 98    	mov.b     w0, [w1+2]
    3fb6:	00 40 eb    	clr.b     w0
    3fb8:	b0 40 98    	mov.b     w0, [w1+3]
    3fba:	14 00 37    	bra       0x3fe4

00003fbc <.L41>:
    3fbc:	05 04 e0    	cp0.b     w5
    3fbe:	07 00 32    	bra       Z, 0x3fce <.L43>
    3fc0:	00 c3 b3    	mov.b     #0x30, w0
    3fc2:	80 c8 42    	add.b     w5, w0, [w1]
    3fc4:	00 c0 41    	add.b     w3, w0, w0
    3fc6:	90 40 98    	mov.b     w0, [w1+1]
    3fc8:	00 40 eb    	clr.b     w0
    3fca:	a0 40 98    	mov.b     w0, [w1+2]
    3fcc:	0b 00 37    	bra       0x3fe4

00003fce <.L43>:
    3fce:	03 04 e0    	cp0.b     w3
    3fd0:	05 00 32    	bra       Z, 0x3fdc <.L45>
    3fd2:	02 c3 b3    	mov.b     #0x30, w2
    3fd4:	82 c8 41    	add.b     w3, w2, [w1]
    3fd6:	00 40 eb    	clr.b     w0
    3fd8:	90 40 98    	mov.b     w0, [w1+1]
    3fda:	04 00 37    	bra       0x3fe4

00003fdc <.L45>:
    3fdc:	00 c3 b3    	mov.b     #0x30, w0
    3fde:	80 48 78    	mov.b     w0, [w1]
    3fe0:	00 40 eb    	clr.b     w0
    3fe2:	90 40 98    	mov.b     w0, [w1+1]

00003fe4 <.L47>:
    3fe4:	00 80 fa    	ulnk      
    3fe6:	00 00 06    	return    

00003fe8 <_u32ToEbv>:
    3fe8:	06 00 fa    	lnk       #0x6
    3fea:	00 02 be    	mov.d     w0, w4
    3fec:	00 40 eb    	clr.b     w0
    3fee:	80 49 78    	mov.b     w0, [w3]
    3ff0:	00 4f 78    	mov.b     w0, [w14]
    3ff2:	0e 03 78    	mov.w     w14, w6
    3ff4:	01 c8 b3    	mov.b     #0x80, w1

00003ff6 <.L51>:
    3ff6:	04 40 78    	mov.b     w4, w0
    3ff8:	00 74 a1    	bclr.b    w0, #0x7
    3ffa:	16 4b 70    	ior.b     w0, [w6], [w6]
    3ffc:	49 28 dd    	sl.w      w5, #0x9, w0
    3ffe:	47 22 de    	lsr.w     w4, #0x7, w4
    4000:	04 02 70    	ior.w     w0, w4, w4
    4002:	c7 2a de    	lsr.w     w5, #0x7, w5
    4004:	93 49 e8    	inc.b     [w3], [w3]
    4006:	01 6b 78    	mov.b     w1, [++w6]
    4008:	e0 0f 52    	sub.w     w4, #0x0, [w15]
    400a:	e0 8f 5a    	subb.w    w5, #0x0, [w15]
    400c:	08 00 32    	bra       Z, 0x401e <.L59>
    400e:	f3 ff 37    	bra       0x3ff6 <.L51>

00004010 <.L54>:
    4010:	46 40 78    	mov.b     [--w6], w0
    4012:	80 70 79    	mov.b     w0, [w1+w2]
    4014:	81 00 e8    	inc.w     w1, w1
    4016:	13 80 fb    	ze        [w3], w0
    4018:	80 8f 50    	sub.w     w1, w0, [w15]
    401a:	04 00 3d    	bra       GE, 0x4024 <.L56>
    401c:	f9 ff 37    	bra       0x4010 <.L54>

0000401e <.L59>:
    401e:	80 00 eb    	clr.w     w1
    4020:	13 04 e0    	cp0.b     [w3]
    4022:	f6 ff 3a    	bra       NZ, 0x4010 <.L54>

00004024 <.L56>:
    4024:	00 80 fa    	ulnk      
    4026:	00 00 06    	return    

00004028 <_insertBitStream>:
    4028:	00 00 fa    	lnk       #0x0
    402a:	88 9f be    	mov.d     w8, [w15++]
    402c:	8a 9f be    	mov.d     w10, [w15++]
    402e:	8c 9f be    	mov.d     w12, [w15++]
    4030:	00 02 78    	mov.w     w0, w4
    4032:	81 06 78    	mov.w     w1, w13
    4034:	83 81 fb    	ze        w3, w3
    4036:	10 00 20    	mov.w     #0x1, w0
    4038:	83 00 dd    	sl.w      w0, w3, w1
    403a:	01 46 e9    	dec.b     w1, w12
    403c:	68 85 11    	subr.w    w3, #0x8, w10
    403e:	0a 00 dd    	sl.w      w0, w10, w0
    4040:	80 45 e9    	dec.b     w0, w11
    4042:	82 84 fb    	ze        w2, w9
    4044:	42 40 a9    	bclr.b    0x42, #0x2
    4046:	17 00 34    	bra       LE, 0x4076 <.L64>
    4048:	84 02 78    	mov.w     w4, w5
    404a:	04 02 e8    	inc.w     w4, w4
    404c:	00 03 eb    	clr.w     w6
    404e:	0c c4 ea    	com.b     w12, w8
    4050:	0b 80 fb    	ze        w11, w0
    4052:	00 80 ea    	com.w     w0, w0
    4054:	83 03 dd    	sl.w      w0, w3, w7

00004056 <.L63>:
    4056:	95 40 64    	and.b     w8, [w5], w1
    4058:	81 4a 78    	mov.b     w1, [w5]
    405a:	06 81 46    	add.w     w13, w6, w2
    405c:	12 80 fb    	ze        [w2], w0
    405e:	0a 80 de    	asr.w     w0, w10, w0
    4060:	00 40 66    	and.b     w12, w0, w0
    4062:	80 da 70    	ior.b     w1, w0, [w5++]
    4064:	94 c0 63    	and.b     w7, [w4], w1
    4066:	01 4a 78    	mov.b     w1, [w4]
    4068:	12 c0 65    	and.b     w11, [w2], w0
    406a:	00 80 fb    	ze        w0, w0
    406c:	03 00 dd    	sl.w      w0, w3, w0
    406e:	00 da 70    	ior.b     w1, w0, [w4++]
    4070:	06 03 e8    	inc.w     w6, w6
    4072:	86 8f 54    	sub.w     w9, w6, [w15]
    4074:	f0 ff 3a    	bra       NZ, 0x4056 <.L63>

00004076 <.L64>:
    4076:	4f 06 be    	mov.d     [--w15], w12
    4078:	4f 05 be    	mov.d     [--w15], w10
    407a:	4f 04 be    	mov.d     [--w15], w8
    407c:	00 80 fa    	ulnk      
    407e:	00 00 06    	return    

00004080 <_readU32FromLittleEndianBuffer>:
    4080:	00 00 fa    	lnk       #0x0
    4082:	00 02 78    	mov.w     w0, w4
    4084:	10 40 78    	mov.b     [w0], w0
    4086:	00 80 fb    	ze        w0, w0
    4088:	01 00 20    	mov.w     #0x0, w1
    408a:	14 41 90    	mov.b     [w4+1], w2
    408c:	48 11 dd    	sl.w      w2, #0x8, w2
    408e:	03 00 20    	mov.w     #0x0, w3
    4090:	02 00 70    	ior.w     w0, w2, w0
    4092:	83 80 70    	ior.w     w1, w3, w1
    4094:	24 41 90    	mov.b     [w4+2], w2
    4096:	82 81 fb    	ze        w2, w3
    4098:	02 00 20    	mov.w     #0x0, w2
    409a:	02 00 70    	ior.w     w0, w2, w0
    409c:	83 80 70    	ior.w     w1, w3, w1
    409e:	34 41 90    	mov.b     [w4+3], w2
    40a0:	c8 11 dd    	sl.w      w2, #0x8, w3
    40a2:	02 00 20    	mov.w     #0x0, w2
    40a4:	02 00 70    	ior.w     w0, w2, w0
    40a6:	83 80 70    	ior.w     w1, w3, w1
    40a8:	00 80 fa    	ulnk      
    40aa:	00 00 06    	return    

000040ac <_uartTxInitialize>:
    40ac:	0a 00 fa    	lnk       #0xa
    40ae:	88 9f be    	mov.d     w8, [w15++]
    40b0:	8a 9f be    	mov.d     w10, [w15++]
    40b2:	8c 9f be    	mov.d     w12, [w15++]
    40b4:	00 04 be    	mov.d     w0, w8
    40b6:	02 05 be    	mov.d     w2, w10
    40b8:	84 06 78    	mov.w     w4, w13
    40ba:	00 00 eb    	clr.w     w0
    40bc:	00 11 88    	mov.w     w0, 0x220
    40be:	10 11 88    	mov.w     w0, 0x222
    40c0:	44 59 dd    	sl.w      w11, #0x4, w2
    40c2:	cc 51 de    	lsr.w     w10, #0xc, w3
    40c4:	83 01 71    	ior.w     w2, w3, w3
    40c6:	44 51 dd    	sl.w      w10, #0x4, w2
    40c8:	08 00 be    	mov.d     w8, w0
    40ca:	6e e1 07    	rcall     0x3a8 <___udivsi3>
    40cc:	30 07 98    	mov.w     w0, [w14+6]
    40ce:	41 07 98    	mov.w     w1, [w14+8]
    40d0:	00 00 e9    	dec.w     w0, w0
    40d2:	00 0f 78    	mov.w     w0, [w14]
    40d4:	44 06 dd    	sl.w      w0, #0x4, w12
    40d6:	70 01 46    	add.w     w12, #0x10, w2
    40d8:	03 00 20    	mov.w     #0x0, w3
    40da:	08 00 be    	mov.d     w8, w0
    40dc:	65 e1 07    	rcall     0x3a8 <___udivsi3>
    40de:	10 07 98    	mov.w     w0, [w14+2]
    40e0:	21 07 98    	mov.w     w1, [w14+4]
    40e2:	00 02 20    	mov.w     #0x20, w0
    40e4:	0c 00 40    	add.w     w0, w12, w0
    40e6:	61 01 b8    	mul.uu    w0, #0x1, w2
    40e8:	08 00 be    	mov.d     w8, w0
    40ea:	5e e1 07    	rcall     0x3a8 <___udivsi3>
    40ec:	00 02 be    	mov.d     w0, w4
    40ee:	1e 01 90    	mov.w     [w14+2], w2
    40f0:	ae 01 90    	mov.w     [w14+4], w3
    40f2:	0a 00 51    	sub.w     w2, w10, w0
    40f4:	8b 80 59    	subb.w    w3, w11, w1
    40f6:	04 01 55    	sub.w     w10, w4, w2
    40f8:	85 81 5d    	subb.w    w11, w5, w3
    40fa:	82 0f 50    	sub.w     w0, w2, [w15]
    40fc:	83 8f 58    	subb.w    w1, w3, [w15]
    40fe:	06 00 36    	bra       LEU, 0x410c <.L2>
    4100:	be 01 90    	mov.w     [w14+6], w3
    4102:	43 11 88    	mov.w     w3, 0x228
    4104:	0d 00 e0    	cp0.w     w13
    4106:	09 00 32    	bra       Z, 0x411a <.L4>
    4108:	84 8e be    	mov.d     w4, [w13]
    410a:	07 00 37    	bra       0x411a <.L4>

0000410c <.L2>:
    410c:	1e 00 78    	mov.w     [w14], w0
    410e:	40 11 88    	mov.w     w0, 0x228
    4110:	0d 00 e0    	cp0.w     w13
    4112:	03 00 32    	bra       Z, 0x411a <.L4>
    4114:	1e 01 90    	mov.w     [w14+2], w2
    4116:	ae 01 90    	mov.w     [w14+4], w3
    4118:	82 8e be    	mov.d     w2, [w13]

0000411a <.L4>:
    411a:	00 00 28    	mov.w     #0x8000, w0
    411c:	20 22 b7    	ior.w     0x220
    411e:	23 42 a8    	bset.b    0x223, #0x2
    4120:	00 00 eb    	clr.w     w0
    4122:	4f 06 be    	mov.d     [--w15], w12
    4124:	4f 05 be    	mov.d     [--w15], w10
    4126:	4f 04 be    	mov.d     [--w15], w8
    4128:	00 80 fa    	ulnk      
    412a:	00 00 06    	return    

0000412c <_uartRxInitialize>:
    412c:	00 00 fa    	lnk       #0x0
    412e:	00 00 eb    	clr.w     w0
    4130:	00 e5 88    	mov.w     w0, 0x1ca0
    4132:	a2 fc b7    	mov.b     WREG, 0x1ca2
    4134:	85 60 a9    	bclr.b    0x85, #0x3
    4136:	01 00 37    	bra       0x413a <.L9>

00004138 <.L10>:
    4138:	e8 e0 07    	rcall     0x30a

0000413a <.L9>:
    413a:	e4 e0 07    	rcall     0x304
    413c:	00 04 e0    	cp0.b     w0
    413e:	fc ff 3a    	bra       NZ, 0x4138 <.L10>
    4140:	00 00 eb    	clr.w     w0
    4142:	00 80 fa    	ulnk      
    4144:	00 00 06    	return    

00004146 <_uartInitialize>:
    4146:	04 00 fa    	lnk       #0x4
    4148:	88 1f 78    	mov.w     w8, [w15++]
    414a:	04 04 78    	mov.w     w4, w8
    414c:	0e 02 78    	mov.w     w14, w4
    414e:	ae ff 07    	rcall     0x40ac <_uartTxInitialize>
    4150:	08 00 e0    	cp0.w     w8
    4152:	02 00 32    	bra       Z, 0x4158 <.L14>
    4154:	1e 01 be    	mov.d     [w14], w2
    4156:	02 8c be    	mov.d     w2, [w8]

00004158 <.L14>:
    4158:	00 04 e0    	cp0.b     w0
    415a:	01 00 3a    	bra       NZ, 0x415e <.L16>
    415c:	e7 ff 07    	rcall     0x412c <_uartRxInitialize>

0000415e <.L16>:
    415e:	00 00 fb    	se        w0, w0
    4160:	4f 04 78    	mov.w     [--w15], w8
    4162:	00 80 fa    	ulnk      
    4164:	00 00 06    	return    

00004166 <_uartTxDeinitialize>:
    4166:	00 00 fa    	lnk       #0x0
    4168:	00 00 eb    	clr.w     w0
    416a:	00 11 88    	mov.w     w0, 0x220
    416c:	10 11 88    	mov.w     w0, 0x222
    416e:	00 80 fa    	ulnk      
    4170:	00 00 06    	return    

00004172 <_uartDeinitialize>:
    4172:	00 00 fa    	lnk       #0x0
    4174:	f8 ff 07    	rcall     0x4166 <_uartTxDeinitialize>
    4176:	00 00 fb    	se        w0, w0
    4178:	00 80 fa    	ulnk      
    417a:	00 00 06    	return    

0000417c <_uartTxByte>:
    417c:	00 00 fa    	lnk       #0x0
    417e:	00 80 fb    	ze        w0, w0
    4180:	20 11 88    	mov.w     w0, 0x224
    4182:	01 10 20    	mov.w     #0x100, w1

00004184 <.L24>:
    4184:	10 11 80    	mov.w     0x222, w0
    4186:	01 00 60    	and.w     w0, w1, w0
    4188:	fd ff 32    	bra       Z, 0x4184 <.L24>
    418a:	00 00 eb    	clr.w     w0
    418c:	00 80 fa    	ulnk      
    418e:	00 00 06    	return    

00004190 <_uartTxString>:
    4190:	00 00 fa    	lnk       #0x0
    4192:	00 01 78    	mov.w     w0, w2
    4194:	10 40 78    	mov.b     [w0], w0
    4196:	00 04 e0    	cp0.b     w0
    4198:	09 00 32    	bra       Z, 0x41ac <.L30>
    419a:	01 10 20    	mov.w     #0x100, w1

0000419c <.L31>:
    419c:	00 00 fb    	se        w0, w0
    419e:	20 11 88    	mov.w     w0, 0x224

000041a0 <.L32>:
    41a0:	10 11 80    	mov.w     0x222, w0
    41a2:	01 00 60    	and.w     w0, w1, w0
    41a4:	fd ff 32    	bra       Z, 0x41a0 <.L32>
    41a6:	52 40 78    	mov.b     [++w2], w0
    41a8:	00 04 e0    	cp0.b     w0
    41aa:	f8 ff 3a    	bra       NZ, 0x419c <.L31>

000041ac <.L30>:
    41ac:	00 00 eb    	clr.w     w0
    41ae:	00 80 fa    	ulnk      
    41b0:	00 00 06    	return    

000041b2 <_uartTxNBytes>:
    41b2:	00 00 fa    	lnk       #0x0
    41b4:	00 02 78    	mov.w     w0, w4
    41b6:	01 00 e9    	dec.w     w1, w0
    41b8:	e1 0f 40    	add.w     w0, #0x1, [w15]
    41ba:	0c 00 32    	bra       Z, 0x41d4 <.L39>
    41bc:	04 01 78    	mov.w     w4, w2
    41be:	03 10 20    	mov.w     #0x100, w3
    41c0:	00 00 42    	add.w     w4, w0, w0
    41c2:	80 00 e8    	inc.w     w0, w1

000041c4 <.L41>:
    41c4:	12 80 fb    	ze        [w2], w0
    41c6:	20 11 88    	mov.w     w0, 0x224

000041c8 <.L42>:
    41c8:	10 11 80    	mov.w     0x222, w0
    41ca:	03 00 60    	and.w     w0, w3, w0
    41cc:	fd ff 32    	bra       Z, 0x41c8 <.L42>
    41ce:	02 01 e8    	inc.w     w2, w2
    41d0:	82 8f 50    	sub.w     w1, w2, [w15]
    41d2:	f8 ff 3a    	bra       NZ, 0x41c4 <.L41>

000041d4 <.L39>:
    41d4:	00 00 eb    	clr.w     w0
    41d6:	00 80 fa    	ulnk      
    41d8:	00 00 06    	return    

000041da <_uartRxNumBytesAvailable>:
    41da:	00 00 fa    	lnk       #0x0
    41dc:	95 60 a9    	bclr.b    0x95, #0x3
    41de:	00 e5 80    	mov.w     0x1ca0, w0
    41e0:	95 60 a8    	bset.b    0x95, #0x3
    41e2:	00 80 fa    	ulnk      
    41e4:	00 00 06    	return    

000041e6 <_uartRxNBytes>:
    41e6:	00 00 fa    	lnk       #0x0
    41e8:	88 9f be    	mov.d     w8, [w15++]
    41ea:	91 04 78    	mov.w     [w1], w9
    41ec:	95 60 a9    	bclr.b    0x95, #0x3
    41ee:	02 e5 80    	mov.w     0x1ca0, w2
    41f0:	82 8f 54    	sub.w     w9, w2, [w15]
    41f2:	06 00 39    	bra       NC, 0x4200 <.L51>
    41f4:	82 08 78    	mov.w     w2, [w1]
    41f6:	02 e5 80    	mov.w     0x1ca0, w2
    41f8:	01 c2 21    	mov.w     #0x1c20, w1
    41fa:	52 e2 07    	rcall     0x6a0 <_memcpy>
    41fc:	a0 3c ef    	clr.w     0x1ca0
    41fe:	0a 00 37    	bra       0x4214 <.L53>

00004200 <.L51>:
    4200:	08 c2 21    	mov.w     #0x1c20, w8
    4202:	09 01 78    	mov.w     w9, w2
    4204:	88 00 78    	mov.w     w8, w1
    4206:	4c e2 07    	rcall     0x6a0 <_memcpy>
    4208:	00 e5 80    	mov.w     0x1ca0, w0
    420a:	09 01 50    	sub.w     w0, w9, w2
    420c:	02 e5 88    	mov.w     w2, 0x1ca0
    420e:	88 80 44    	add.w     w9, w8, w1
    4210:	08 00 78    	mov.w     w8, w0
    4212:	4d e2 07    	rcall     0x6ae

00004214 <.L53>:
    4214:	95 60 a8    	bset.b    0x95, #0x3
    4216:	00 00 eb    	clr.w     w0
    4218:	4f 04 be    	mov.d     [--w15], w8
    421a:	00 80 fa    	ulnk      
    421c:	00 00 06    	return    

0000421e <__U1RXInterrupt>:
    421e:	36 00 f8    	push      0x36
    4220:	80 9f be    	mov.d     w0, [w15++]
    4222:	82 9f be    	mov.d     w2, [w15++]
    4224:	84 9f be    	mov.d     w4, [w15++]
    4226:	86 9f be    	mov.d     w6, [w15++]
    4228:	88 1f 78    	mov.w     w8, [w15++]
    422a:	00 00 fa    	lnk       #0x0
    422c:	85 60 a9    	bclr.b    0x85, #0x3
    422e:	0e 00 37    	bra       0x424c <.L56>

00004230 <.L57>:
    4230:	08 e5 80    	mov.w     0x1ca0, w8
    4232:	f0 07 20    	mov.w     #0x7f, w0
    4234:	80 0f 54    	sub.w     w8, w0, [w15]
    4236:	03 00 3e    	bra       GTU, 0x423e <.L58>
    4238:	22 c2 bf    	mov.b     0x222, WREG
    423a:	00 18 a3    	btst.z    w0, #0x1
    423c:	03 00 32    	bra       Z, 0x4244 <.L60>

0000423e <.L58>:
    423e:	a2 fc ef    	setm.b    0x1ca2
    4240:	22 22 a9    	bclr.b    0x222, #0x1
    4242:	07 00 37    	bra       0x4252 <.L62>

00004244 <.L60>:
    4244:	62 e0 07    	rcall     0x30a
    4246:	01 c2 21    	mov.w     #0x1c20, w1
    4248:	00 f4 78    	mov.b     w0, [w8+w1]
    424a:	a0 3c ec    	inc.w     0x1ca0

0000424c <.L56>:
    424c:	5b e0 07    	rcall     0x304
    424e:	00 04 e0    	cp0.b     w0
    4250:	ef ff 3a    	bra       NZ, 0x4230 <.L57>

00004252 <.L62>:
    4252:	00 80 fa    	ulnk      
    4254:	4f 04 78    	mov.w     [--w15], w8
    4256:	4f 03 be    	mov.d     [--w15], w6
    4258:	4f 02 be    	mov.d     [--w15], w4
    425a:	4f 01 be    	mov.d     [--w15], w2
    425c:	4f 00 be    	mov.d     [--w15], w0
    425e:	36 00 f9    	pop       0x36
    4260:	00 40 06    	retfie    

00004262 <_uartGetError>:
    4262:	00 00 fa    	lnk       #0x0
    4264:	a2 dc bf    	mov.b     0x1ca2, WREG
    4266:	95 60 a9    	bclr.b    0x95, #0x3
    4268:	a2 7c ef    	clr.b     0x1ca2
    426a:	95 60 a8    	bset.b    0x95, #0x3
    426c:	00 80 fb    	ze        w0, w0
    426e:	00 80 fa    	ulnk      
    4270:	00 00 06    	return    

00004272 <_uartStreamInitialize>:
    4272:	00 00 fa    	lnk       #0x0
    4274:	00 ee 88    	mov.w     w0, 0x1dc0
    4276:	11 ee 88    	mov.w     w1, 0x1dc2
    4278:	80 40 eb    	clr.b     w1
    427a:	80 00 fd    	exch      w0, w1
    427c:	cc fd b7    	mov.b     WREG, 0x1dcc
    427e:	80 00 fd    	exch      w0, w1
    4280:	00 01 eb    	clr.w     w2
    4282:	32 ee 88    	mov.w     w2, 0x1dc6
    4284:	80 00 fd    	exch      w0, w1
    4286:	c4 fd b7    	mov.b     WREG, 0x1dc4
    4288:	c5 fd b7    	mov.b     WREG, 0x1dc5
    428a:	80 00 fd    	exch      w0, w1
    428c:	42 ee 88    	mov.w     w2, 0x1dc8
    428e:	50 ee 88    	mov.w     w0, 0x1dca
    4290:	00 80 fa    	ulnk      
    4292:	00 00 06    	return    

00004294 <_uartStreamConnect>:
    4294:	00 00 fa    	lnk       #0x0
    4296:	00 80 fa    	ulnk      
    4298:	00 00 06    	return    

0000429a <_uartStreamDisconnect>:
    429a:	00 00 fa    	lnk       #0x0
    429c:	00 80 fa    	ulnk      
    429e:	00 00 06    	return    

000042a0 <_uartStreamReady>:
    42a0:	00 00 fa    	lnk       #0x0
    42a2:	10 00 20    	mov.w     #0x1, w0
    42a4:	00 80 fa    	ulnk      
    42a6:	00 00 06    	return    

000042a8 <_uartStreamPacketProcessed>:
    42a8:	00 00 fa    	lnk       #0x0
    42aa:	65 40 40    	add.b     w0, #0x5, w0
    42ac:	80 80 fb    	ze        w0, w1
    42ae:	40 ee 80    	mov.w     0x1dc8, w0
    42b0:	01 01 50    	sub.w     w0, w1, w2
    42b2:	42 ee 88    	mov.w     w2, 0x1dc8
    42b4:	03 ee 80    	mov.w     0x1dc0, w3
    42b6:	83 80 40    	add.w     w1, w3, w1
    42b8:	03 00 78    	mov.w     w3, w0
    42ba:	f9 e1 07    	rcall     0x6ae
    42bc:	40 ee 80    	mov.w     0x1dc8, w0
    42be:	c0 1d b4    	add.w     0x1dc0, WREG
    42c0:	50 ee 88    	mov.w     w0, 0x1dca
    42c2:	00 80 fa    	ulnk      
    42c4:	00 00 06    	return    

000042c6 <_uartStreamHasAnotherPacket>:
    42c6:	00 00 fa    	lnk       #0x0
    42c8:	42 ee 80    	mov.w     0x1dc8, w2
    42ca:	e4 0f 51    	sub.w     w2, #0x4, [w15]
    42cc:	0a 00 36    	bra       LEU, 0x42e2 <.L12>
    42ce:	00 ee 80    	mov.w     0x1dc0, w0
    42d0:	90 40 90    	mov.b     [w0+1], w1
    42d2:	c8 08 dd    	sl.w      w1, #0x8, w1
    42d4:	20 40 90    	mov.b     [w0+2], w0
    42d6:	00 80 fb    	ze        w0, w0
    42d8:	80 80 70    	ior.w     w1, w0, w1
    42da:	e5 80 40    	add.w     w1, #0x5, w1
    42dc:	10 00 20    	mov.w     #0x1, w0
    42de:	81 0f 51    	sub.w     w2, w1, [w15]
    42e0:	01 00 31    	bra       C, 0x42e4 <.L15>

000042e2 <.L12>:
    42e2:	00 00 eb    	clr.w     w0

000042e4 <.L15>:
    42e4:	00 00 fb    	se        w0, w0
    42e6:	00 80 fa    	ulnk      
    42e8:	00 00 06    	return    

000042ea <_uartStreamOldFormatRequest>:
    42ea:	00 00 fa    	lnk       #0x0
    42ec:	88 1f 78    	mov.w     w8, [w15++]
    42ee:	00 ee 80    	mov.w     0x1dc0, w0
    42f0:	10 44 78    	mov.b     [w0], w8
    42f2:	10 40 90    	mov.b     [w0+1], w0
    42f4:	00 04 e0    	cp0.b     w0
    42f6:	02 00 3a    	bra       NZ, 0x42fc <.L18>
    42f8:	08 68 a3    	btst.z    w8, #0x6
    42fa:	0e 00 32    	bra       Z, 0x4318 <.L20>

000042fc <.L18>:
    42fc:	e0 cd b3    	mov.b     #0xde, w0
    42fe:	d2 fd b7    	mov.b     WREG, 0x1dd2
    4300:	30 c0 b3    	mov.b     #0x3, w0
    4302:	d3 fd b7    	mov.b     WREG, 0x1dd3
    4304:	21 00 20    	mov.w     #0x2, w1
    4306:	20 dd 21    	mov.w     #0x1dd2, w0
    4308:	54 ff 07    	rcall     0x41b2 <_uartTxNBytes>
    430a:	08 00 78    	mov.w     w8, w0
    430c:	d2 fd b7    	mov.b     WREG, 0x1dd2
    430e:	d3 fd ef    	setm.b    0x1dd3
    4310:	d4 7d ef    	clr.b     0x1dd4
    4312:	31 00 20    	mov.w     #0x3, w1
    4314:	20 dd 21    	mov.w     #0x1dd2, w0
    4316:	4d ff 07    	rcall     0x41b2 <_uartTxNBytes>

00004318 <.L20>:
    4318:	cd 7d ef    	clr.b     0x1dcd
    431a:	00 00 eb    	clr.w     w0
    431c:	30 ee 88    	mov.w     w0, 0x1dc6
    431e:	40 ee 88    	mov.w     w0, 0x1dc8
    4320:	01 ee 80    	mov.w     0x1dc0, w1
    4322:	51 ee 88    	mov.w     w1, 0x1dca
    4324:	4f 04 78    	mov.w     [--w15], w8
    4326:	00 80 fa    	ulnk      
    4328:	00 00 06    	return    

0000432a <_uartStreamReceive>:
    432a:	04 00 fa    	lnk       #0x4
    432c:	56 ff 07    	rcall     0x41da <_uartRxNumBytesAvailable>
    432e:	00 00 e0    	cp0.w     w0
    4330:	49 00 32    	bra       Z, 0x43c4 <.L23>
    4332:	cc dd bf    	mov.b     0x1dcc, WREG
    4334:	00 80 fb    	ze        w0, w0
    4336:	64 00 10    	subr.w    w0, #0x4, w0
    4338:	00 0f 78    	mov.w     w0, [w14]
    433a:	2f 00 32    	bra       Z, 0x439a <.L25>
    433c:	b5 02 07    	rcall     0x48a8 <_ioLedOn>
    433e:	cc dd bf    	mov.b     0x1dcc, WREG
    4340:	00 80 fb    	ze        w0, w0
    4342:	e1 dc 21    	mov.w     #0x1dce, w1
    4344:	01 00 40    	add.w     w0, w1, w0
    4346:	8e 00 78    	mov.w     w14, w1
    4348:	4e ff 07    	rcall     0x41e6 <_uartRxNBytes>
    434a:	cc dd bf    	mov.b     0x1dcc, WREG
    434c:	1e 40 40    	add.b     w0, [w14], w0
    434e:	cc fd b7    	mov.b     WREG, 0x1dcc
    4350:	ae 02 07    	rcall     0x48ae <_ioLedOff>
    4352:	c0 dc 21    	mov.w     #0x1dcc, w0
    4354:	31 c0 b3    	mov.b     #0x3, w1
    4356:	90 cf 10    	subr.b    w1, [w0], [w15]
    4358:	35 00 36    	bra       LEU, 0x43c4 <.L23>
    435a:	f1 dc 21    	mov.w     #0x1dcf, w1
    435c:	91 40 78    	mov.b     [w1], w1
    435e:	01 04 e0    	cp0.b     w1
    4360:	0f 00 32    	bra       Z, 0x4380 <.L28>
    4362:	10 c0 b3    	mov.b     #0x1, w0
    4364:	cd fd b7    	mov.b     WREG, 0x1dcd
    4366:	01 80 fb    	ze        w1, w0
    4368:	30 ee 88    	mov.w     w0, 0x1dc6
    436a:	00 ee 80    	mov.w     0x1dc0, w0
    436c:	01 dd 21    	mov.w     #0x1dd0, w1
    436e:	11 48 78    	mov.b     [w1], [w0]
    4370:	11 dd 21    	mov.w     #0x1dd1, w1
    4372:	91 40 78    	mov.b     [w1], w1
    4374:	11 40 98    	mov.b     w1, [w0+1]
    4376:	c0 9d ec    	inc2.w    0x1dc0, WREG
    4378:	50 ee 88    	mov.w     w0, 0x1dca
    437a:	20 00 20    	mov.w     #0x2, w0
    437c:	40 ee 88    	mov.w     w0, 0x1dc8
    437e:	0b 00 37    	bra       0x4396 <.L30>

00004380 <.L28>:
    4380:	cd 7d ef    	clr.b     0x1dcd
    4382:	01 dd 21    	mov.w     #0x1dd0, w1
    4384:	91 40 78    	mov.b     [w1], w1
    4386:	c8 08 dd    	sl.w      w1, #0x8, w1
    4388:	d1 dd bf    	mov.b     0x1dd1, WREG
    438a:	00 80 fb    	ze        w0, w0
    438c:	80 80 70    	ior.w     w1, w0, w1
    438e:	31 ee 88    	mov.w     w1, 0x1dc6
    4390:	c8 3d ef    	clr.w     0x1dc8
    4392:	01 ee 80    	mov.w     0x1dc0, w1
    4394:	51 ee 88    	mov.w     w1, 0x1dca

00004396 <.L30>:
    4396:	ce dd bf    	mov.b     0x1dce, WREG
    4398:	c5 fd b7    	mov.b     WREG, 0x1dc5

0000439a <.L25>:
    439a:	86 02 07    	rcall     0x48a8 <_ioLedOn>
    439c:	40 ee 80    	mov.w     0x1dc8, w0
    439e:	c6 1d b5    	sub.w     0x1dc6, WREG
    43a0:	8e 00 78    	mov.w     w14, w1
    43a2:	80 28 78    	mov.w     w0, [++w1]
    43a4:	50 ee 80    	mov.w     0x1dca, w0
    43a6:	1f ff 07    	rcall     0x41e6 <_uartRxNBytes>
    43a8:	1e 00 90    	mov.w     [w14+2], w0
    43aa:	c8 3d b4    	add.w     0x1dc8
    43ac:	ca 3d b4    	add.w     0x1dca
    43ae:	7f 02 07    	rcall     0x48ae <_ioLedOff>
    43b0:	31 ee 80    	mov.w     0x1dc6, w1
    43b2:	40 ee 80    	mov.w     0x1dc8, w0
    43b4:	81 0f 50    	sub.w     w0, w1, [w15]
    43b6:	06 00 39    	bra       NC, 0x43c4 <.L23>
    43b8:	cc 7d ef    	clr.b     0x1dcc
    43ba:	cd 5d e2    	cp0.b     0x1dcd
    43bc:	04 00 32    	bra       Z, 0x43c6 <.L32>
    43be:	95 ff 07    	rcall     0x42ea <_uartStreamOldFormatRequest>
    43c0:	80 00 78    	mov.w     w0, w1
    43c2:	01 00 37    	bra       0x43c6 <.L32>

000043c4 <.L23>:
    43c4:	80 00 eb    	clr.w     w1

000043c6 <.L32>:
    43c6:	01 00 78    	mov.w     w1, w0
    43c8:	00 80 fa    	ulnk      
    43ca:	00 00 06    	return    

000043cc <_uartStreamTransmit>:
    43cc:	00 00 fa    	lnk       #0x0
    43ce:	88 1f 78    	mov.w     w8, [w15++]
    43d0:	00 04 78    	mov.w     w0, w8
    43d2:	00 00 e0    	cp0.w     w0
    43d4:	16 00 32    	bra       Z, 0x4402 <.L38>
    43d6:	68 02 07    	rcall     0x48a8 <_ioLedOn>
    43d8:	c4 5d ec    	inc.b     0x1dc4, WREG
    43da:	80 40 78    	mov.b     w0, w1
    43dc:	c5 dd bf    	mov.b     0x1dc5, WREG
    43de:	44 00 dd    	sl.w      w0, #0x4, w0
    43e0:	ef c0 60    	and.b     w1, #0xf, w1
    43e2:	01 40 70    	ior.b     w0, w1, w0
    43e4:	c4 fd b7    	mov.b     WREG, 0x1dc4
    43e6:	d2 fd b7    	mov.b     WREG, 0x1dd2
    43e8:	df fa 07    	rcall     0x39a8 <_StreamDispatcherGetLastError>
    43ea:	d3 fd b7    	mov.b     WREG, 0x1dd3
    43ec:	48 40 de    	lsr.w     w8, #0x8, w0
    43ee:	d4 fd b7    	mov.b     WREG, 0x1dd4
    43f0:	08 00 78    	mov.w     w8, w0
    43f2:	d5 fd b7    	mov.b     WREG, 0x1dd5
    43f4:	41 00 20    	mov.w     #0x4, w1
    43f6:	20 dd 21    	mov.w     #0x1dd2, w0
    43f8:	dc fe 07    	rcall     0x41b2 <_uartTxNBytes>
    43fa:	10 ee 80    	mov.w     0x1dc2, w0
    43fc:	88 00 78    	mov.w     w8, w1
    43fe:	d9 fe 07    	rcall     0x41b2 <_uartTxNBytes>
    4400:	56 02 07    	rcall     0x48ae <_ioLedOff>

00004402 <.L38>:
    4402:	4f 04 78    	mov.w     [--w15], w8
    4404:	00 80 fa    	ulnk      
    4406:	00 00 06    	return    

00004408 <_systemClockFromPllPrescaler>:
    4408:	00 00 fa    	lnk       #0x0
    440a:	44 c7 bf    	mov.b     0x744, WREG
    440c:	00 80 fb    	ze        w0, w0
    440e:	46 00 de    	lsr.w     w0, #0x6, w0
    4410:	12 00 20    	mov.w     #0x1, w2
    4412:	00 11 dd    	sl.w      w2, w0, w2
    4414:	cf 91 de    	asr.w     w2, #0xf, w3
    4416:	00 80 24    	mov.w     #0x4800, w0
    4418:	81 1e 20    	mov.w     #0x1e8, w1
    441a:	c6 df 07    	rcall     0x3a8 <___udivsi3>
    441c:	00 80 fa    	ulnk      
    441e:	00 00 06    	return    

00004420 <_systemClockFindPllPrescaler>:
    4420:	00 00 fa    	lnk       #0x0
    4422:	00 02 be    	mov.d     w0, w4
    4424:	f0 7f 24    	mov.w     #0x47ff, w0
    4426:	81 1e 20    	mov.w     #0x1e8, w1
    4428:	80 0f 52    	sub.w     w4, w0, [w15]
    442a:	81 8f 5a    	subb.w    w5, w1, [w15]
    442c:	02 00 36    	bra       LEU, 0x4432 <.L4>
    442e:	04 80 24    	mov.w     #0x4800, w4
    4430:	85 1e 20    	mov.w     #0x1e8, w5

00004432 <.L4>:
    4432:	00 40 22    	mov.w     #0x2400, w0
    4434:	41 0f 20    	mov.w     #0xf4, w1
    4436:	00 03 eb    	clr.w     w6

00004438 <.L6>:
    4438:	81 01 d1    	lsr.w     w1, w3
    443a:	00 81 d3    	rrc.w     w0, w2
    443c:	02 00 40    	add.w     w0, w2, w0
    443e:	83 80 48    	addc.w    w1, w3, w1
    4440:	80 0f 52    	sub.w     w4, w0, [w15]
    4442:	81 8f 5a    	subb.w    w5, w1, [w15]
    4444:	04 00 3e    	bra       GTU, 0x444e <.L7>
    4446:	06 03 e8    	inc.w     w6, w6
    4448:	02 00 be    	mov.d     w2, w0
    444a:	e3 0f 53    	sub.w     w6, #0x3, [w15]
    444c:	f5 ff 3a    	bra       NZ, 0x4438 <.L6>

0000444e <.L7>:
    444e:	c6 30 dd    	sl.w      w6, #0x6, w1
    4450:	44 c7 bf    	mov.b     0x744, WREG
    4452:	f0 43 b2    	and.b     #0x3f, w0
    4454:	01 40 70    	ior.b     w0, w1, w0
    4456:	44 e7 b7    	mov.b     WREG, 0x744
    4458:	44 a7 a8    	bset.b    0x744, #0x5

0000445a <.L9>:
    445a:	42 c7 bf    	mov.b     0x742, WREG
    445c:	00 58 a3    	btst.z    w0, #0x5
    445e:	fd ff 32    	bra       Z, 0x445a <.L9>
    4460:	00 80 fa    	ulnk      
    4462:	00 00 06    	return    

00004464 <_systemClockFromFrcPostscaler>:
    4464:	00 00 fa    	lnk       #0x0
    4466:	45 c7 bf    	mov.b     0x745, WREG
    4468:	67 00 60    	and.w     w0, #0x7, w0
    446a:	12 00 20    	mov.w     #0x1, w2
    446c:	00 11 dd    	sl.w      w2, w0, w2
    446e:	cf 91 de    	asr.w     w2, #0xf, w3
    4470:	00 20 21    	mov.w     #0x1200, w0
    4472:	a1 07 20    	mov.w     #0x7a, w1
    4474:	99 df 07    	rcall     0x3a8 <___udivsi3>
    4476:	00 80 fa    	ulnk      
    4478:	00 00 06    	return    

0000447a <_systemClockFindFrcPostscaler>:
    447a:	00 00 fa    	lnk       #0x0
    447c:	00 02 be    	mov.d     w0, w4
    447e:	f0 1f 21    	mov.w     #0x11ff, w0
    4480:	a1 07 20    	mov.w     #0x7a, w1
    4482:	80 0f 52    	sub.w     w4, w0, [w15]
    4484:	81 8f 5a    	subb.w    w5, w1, [w15]
    4486:	02 00 36    	bra       LEU, 0x448c <.L18>
    4488:	04 20 21    	mov.w     #0x1200, w4
    448a:	a5 07 20    	mov.w     #0x7a, w5

0000448c <.L18>:
    448c:	00 90 20    	mov.w     #0x900, w0
    448e:	d1 03 20    	mov.w     #0x3d, w1
    4490:	00 03 eb    	clr.w     w6

00004492 <.L20>:
    4492:	81 01 d1    	lsr.w     w1, w3
    4494:	00 81 d3    	rrc.w     w0, w2
    4496:	02 00 40    	add.w     w0, w2, w0
    4498:	83 80 48    	addc.w    w1, w3, w1
    449a:	80 0f 52    	sub.w     w4, w0, [w15]
    449c:	81 8f 5a    	subb.w    w5, w1, [w15]
    449e:	04 00 3e    	bra       GTU, 0x44a8 <.L21>
    44a0:	06 03 e8    	inc.w     w6, w6
    44a2:	02 00 be    	mov.d     w2, w0
    44a4:	e7 0f 53    	sub.w     w6, #0x7, [w15]
    44a6:	f5 ff 3a    	bra       NZ, 0x4492 <.L20>

000044a8 <.L21>:
    44a8:	67 40 63    	and.b     w6, #0x7, w0
    44aa:	51 74 20    	mov.w     #0x745, w1
    44ac:	91 40 78    	mov.b     [w1], w1
    44ae:	82 cf b3    	mov.b     #0xf8, w2
    44b0:	82 c0 60    	and.b     w1, w2, w1
    44b2:	80 c0 70    	ior.b     w1, w0, w1
    44b4:	01 00 78    	mov.w     w1, w0
    44b6:	45 e7 b7    	mov.b     WREG, 0x745
    44b8:	00 80 fa    	ulnk      
    44ba:	00 00 06    	return    

000044bc <_systemClockConfigure>:
    44bc:	00 00 fa    	lnk       #0x0
    44be:	42 47 a8    	bset.b    0x742, #0x2
    44c0:	42 27 a8    	bset.b    0x742, #0x1
    44c2:	00 80 fa    	ulnk      
    44c4:	00 00 06    	return    

000044c6 <_systemClockInitialise>:
    44c6:	00 00 fa    	lnk       #0x0
    44c8:	02 00 07    	rcall     0x44ce <_systemClockGetFcy>
    44ca:	00 80 fa    	ulnk      
    44cc:	00 00 06    	return    

000044ce <_systemClockGetFcy>:
    44ce:	00 00 fa    	lnk       #0x0
    44d0:	43 c7 bf    	mov.b     0x743, WREG
    44d2:	44 00 de    	lsr.w     w0, #0x4, w0
    44d4:	67 01 60    	and.w     w0, #0x7, w2
    44d6:	00 b0 21    	mov.w     #0x1b00, w0
    44d8:	71 0b 20    	mov.w     #0xb7, w1
    44da:	e2 0f 51    	sub.w     w2, #0x2, [w15]
    44dc:	17 00 32    	bra       Z, 0x450c <.L38>
    44de:	07 00 3c    	bra       GT, 0x44ee <.L37>
    44e0:	00 20 21    	mov.w     #0x1200, w0
    44e2:	a1 07 20    	mov.w     #0x7a, w1
    44e4:	02 00 e0    	cp0.w     w2
    44e6:	12 00 32    	bra       Z, 0x450c <.L38>
    44e8:	e1 0f 51    	sub.w     w2, #0x1, [w15]
    44ea:	09 00 3a    	bra       NZ, 0x44fe <.L30>
    44ec:	0e 00 37    	bra       0x450a <.L32>

000044ee <.L37>:
    44ee:	00 00 28    	mov.w     #0x8000, w0
    44f0:	01 00 20    	mov.w     #0x0, w1
    44f2:	e5 0f 51    	sub.w     w2, #0x5, [w15]
    44f4:	0b 00 32    	bra       Z, 0x450c <.L38>
    44f6:	e7 0f 51    	sub.w     w2, #0x7, [w15]
    44f8:	06 00 32    	bra       Z, 0x4506 <.L36>
    44fa:	e3 0f 51    	sub.w     w2, #0x3, [w15]
    44fc:	02 00 32    	bra       Z, 0x4502 <.L34>

000044fe <.L30>:
    44fe:	60 00 b8    	mul.uu    w0, #0x0, w0
    4500:	05 00 37    	bra       0x450c <.L38>

00004502 <.L34>:
    4502:	82 ff 07    	rcall     0x4408 <_systemClockFromPllPrescaler>
    4504:	03 00 37    	bra       0x450c <.L38>

00004506 <.L36>:
    4506:	ae ff 07    	rcall     0x4464 <_systemClockFromFrcPostscaler>
    4508:	01 00 37    	bra       0x450c <.L38>

0000450a <.L32>:
    450a:	7e ff 07    	rcall     0x4408 <_systemClockFromPllPrescaler>

0000450c <.L38>:
    450c:	81 00 d1    	lsr.w     w1, w1
    450e:	00 80 d3    	rrc.w     w0, w0
    4510:	e0 ef 88    	mov.w     w0, 0x1dfc
    4512:	f1 ef 88    	mov.w     w1, 0x1dfe
    4514:	00 80 fa    	ulnk      
    4516:	00 00 06    	return    

00004518 <_systemClockGetClockSource>:
    4518:	00 00 fa    	lnk       #0x0
    451a:	43 c7 bf    	mov.b     0x743, WREG
    451c:	44 00 de    	lsr.w     w0, #0x4, w0
    451e:	67 00 60    	and.w     w0, #0x7, w0
    4520:	00 80 fa    	ulnk      
    4522:	00 00 06    	return    

00004524 <_systemClockChangeClockSource>:
    4524:	00 00 fa    	lnk       #0x0
    4526:	88 9f be    	mov.d     w8, [w15++]
    4528:	02 04 41    	add.w     w2, w2, w8
    452a:	83 84 49    	addc.w    w3, w3, w9
    452c:	f7 de 07    	rcall     0x31c
    452e:	43 c7 bf    	mov.b     0x743, WREG
    4530:	44 00 de    	lsr.w     w0, #0x4, w0
    4532:	67 00 60    	and.w     w0, #0x7, w0
    4534:	e3 0f 50    	sub.w     w0, #0x3, [w15]
    4536:	14 00 32    	bra       Z, 0x4560 <.L47>
    4538:	06 00 3c    	bra       GT, 0x4546 <.L51>
    453a:	e1 0f 50    	sub.w     w0, #0x1, [w15]
    453c:	20 00 32    	bra       Z, 0x457e <.L45>
    453e:	15 00 3c    	bra       GT, 0x456a <.L46>
    4540:	00 00 e0    	cp0.w     w0
    4542:	22 00 32    	bra       Z, 0x4588 <.L44>
    4544:	24 00 37    	bra       0x458e <.L43>

00004546 <.L51>:
    4546:	e5 0f 50    	sub.w     w0, #0x5, [w15]
    4548:	04 00 32    	bra       Z, 0x4552 <.L49>
    454a:	07 00 35    	bra       LT, 0x455a <.L48>
    454c:	e7 0f 50    	sub.w     w0, #0x7, [w15]
    454e:	1f 00 3a    	bra       NZ, 0x458e <.L43>
    4550:	10 00 37    	bra       0x4572 <.L50>

00004552 <.L49>:
    4552:	44 a7 a9    	bclr.b    0x744, #0x5
    4554:	08 00 28    	mov.w     #0x8000, w8
    4556:	09 00 20    	mov.w     #0x0, w9
    4558:	1a 00 37    	bra       0x458e <.L43>

0000455a <.L48>:
    455a:	44 a7 a9    	bclr.b    0x744, #0x5
    455c:	60 44 b8    	mul.uu    w8, #0x0, w8
    455e:	17 00 37    	bra       0x458e <.L43>

00004560 <.L47>:
    4560:	08 00 be    	mov.d     w8, w0
    4562:	5e ff 07    	rcall     0x4420 <_systemClockFindPllPrescaler>
    4564:	51 ff 07    	rcall     0x4408 <_systemClockFromPllPrescaler>
    4566:	00 04 be    	mov.d     w0, w8
    4568:	12 00 37    	bra       0x458e <.L43>

0000456a <.L46>:
    456a:	44 a7 a9    	bclr.b    0x744, #0x5
    456c:	08 b0 21    	mov.w     #0x1b00, w8
    456e:	79 0b 20    	mov.w     #0xb7, w9
    4570:	0e 00 37    	bra       0x458e <.L43>

00004572 <.L50>:
    4572:	08 00 be    	mov.d     w8, w0
    4574:	82 ff 07    	rcall     0x447a <_systemClockFindFrcPostscaler>
    4576:	76 ff 07    	rcall     0x4464 <_systemClockFromFrcPostscaler>
    4578:	00 04 be    	mov.d     w0, w8
    457a:	44 a7 a9    	bclr.b    0x744, #0x5
    457c:	08 00 37    	bra       0x458e <.L43>

0000457e <.L45>:
    457e:	08 00 be    	mov.d     w8, w0
    4580:	4f ff 07    	rcall     0x4420 <_systemClockFindPllPrescaler>
    4582:	42 ff 07    	rcall     0x4408 <_systemClockFromPllPrescaler>
    4584:	00 04 be    	mov.d     w0, w8
    4586:	03 00 37    	bra       0x458e <.L43>

00004588 <.L44>:
    4588:	44 a7 a9    	bclr.b    0x744, #0x5
    458a:	08 20 21    	mov.w     #0x1200, w8
    458c:	a9 07 20    	mov.w     #0x7a, w9

0000458e <.L43>:
    458e:	89 00 d1    	lsr.w     w9, w1
    4590:	08 80 d3    	rrc.w     w8, w0
    4592:	e0 ef 88    	mov.w     w0, 0x1dfc
    4594:	f1 ef 88    	mov.w     w1, 0x1dfe
    4596:	4f 04 be    	mov.d     [--w15], w8
    4598:	00 80 fa    	ulnk      
    459a:	00 00 06    	return    

0000459c <_initExtInterrupt>:
    459c:	00 00 fa    	lnk       #0x0
    459e:	82 20 a9    	bclr.b    0x82, #0x1
    45a0:	ae c0 bf    	mov.b     0xae, WREG
    45a2:	81 cf b3    	mov.b     #0xf8, w1
    45a4:	01 40 60    	and.b     w0, w1, w0
    45a6:	60 40 b3    	ior.b     #0x6, w0
    45a8:	ae e0 b7    	mov.b     WREG, 0xae
    45aa:	86 80 a9    	bclr.b    0x86, #0x4
    45ac:	40 c6 b3    	mov.b     #0x64, w0

000045ae <.L2>:
    45ae:	00 40 e9    	dec.b     w0, w0
    45b0:	fe ff 3a    	bra       NZ, 0x45ae <.L2>
    45b2:	96 80 a8    	bset.b    0x96, #0x4
    45b4:	00 80 fa    	ulnk      
    45b6:	00 00 06    	return    

000045b8 <_initFermi>:
    45b8:	00 00 fa    	lnk       #0x0
    45ba:	50 fe 2f    	mov.w     #0xffe5, w0
    45bc:	00 16 88    	mov.w     w0, 0x2c0
    45be:	70 cc 25    	mov.w     #0x5cc7, w0
    45c0:	40 16 88    	mov.w     w0, 0x2c8
    45c2:	c8 82 a9    	bclr.b    0x2c8, #0x4
    45c4:	cc 82 a9    	bclr.b    0x2cc, #0x4
    45c6:	c4 22 a9    	bclr.b    0x2c4, #0x1
    45c8:	c3 c6 bf    	mov.b     0x6c3, WREG
    45ca:	01 ce b3    	mov.b     #0xe0, w1
    45cc:	01 40 60    	and.b     w0, w1, w0
    45ce:	00 34 a0    	bset.b    w0, #0x3
    45d0:	c3 e6 b7    	mov.b     WREG, 0x6c3
    45d2:	c6 c6 bf    	mov.b     0x6c6, WREG
    45d4:	01 40 60    	and.b     w0, w1, w0
    45d6:	70 40 b3    	ior.b     #0x7, w0
    45d8:	c6 e6 b7    	mov.b     WREG, 0x6c6
    45da:	a8 c6 bf    	mov.b     0x6a8, WREG
    45dc:	01 40 60    	and.b     w0, w1, w0
    45de:	50 40 b3    	ior.b     #0x5, w0
    45e0:	a8 e6 b7    	mov.b     WREG, 0x6a8
    45e2:	81 c6 bf    	mov.b     0x681, WREG
    45e4:	01 40 60    	and.b     w0, w1, w0
    45e6:	e0 40 b3    	ior.b     #0xe, w0
    45e8:	81 e6 b7    	mov.b     WREG, 0x681
    45ea:	c8 c6 bf    	mov.b     0x6c8, WREG
    45ec:	01 40 60    	and.b     w0, w1, w0
    45ee:	30 40 b3    	ior.b     #0x3, w0
    45f0:	c8 e6 b7    	mov.b     WREG, 0x6c8
    45f2:	a4 c6 bf    	mov.b     0x6a4, WREG
    45f4:	01 40 60    	and.b     w0, w1, w0
    45f6:	70 40 b3    	ior.b     #0x7, w0
    45f8:	a4 e6 b7    	mov.b     WREG, 0x6a4
    45fa:	00 80 fa    	ulnk      
    45fc:	00 00 06    	return    

000045fe <_platformInit>:
    45fe:	00 00 fa    	lnk       #0x0
    4600:	2c a3 ef    	setm.w    0x32c
    4602:	da ff 07    	rcall     0x45b8 <_initFermi>
    4604:	cd a2 a9    	bclr.b    0x2cd, #0x5
    4606:	cd e2 a8    	bset.b    0x2cd, #0x7
    4608:	c9 ff 07    	rcall     0x459c <_initExtInterrupt>
    460a:	00 64 20    	mov.w     #0x640, w0
    460c:	01 00 20    	mov.w     #0x0, w1
    460e:	93 01 07    	rcall     0x4936 <___delay32>
    4610:	00 80 fa    	ulnk      
    4612:	00 00 06    	return    

00004614 <_spiInit>:
    4614:	08 00 fa    	lnk       #0x8
    4616:	00 90 20    	mov.w     #0x900, w0
    4618:	d1 03 20    	mov.w     #0x3d, w1
    461a:	00 8f be    	mov.d     w0, [w14]
    461c:	80 40 eb    	clr.b     w1
    461e:	41 47 98    	mov.b     w1, [w14+4]
    4620:	10 c0 b3    	mov.b     #0x1, w0
    4622:	60 47 98    	mov.b     w0, [w14+6]
    4624:	71 47 98    	mov.b     w1, [w14+7]
    4626:	51 47 98    	mov.b     w1, [w14+5]
    4628:	80 00 eb    	clr.w     w1
    462a:	0e 00 78    	mov.w     w14, w0
    462c:	04 fa 07    	rcall     0x3a36 <_spiInitialize>
    462e:	00 80 fa    	ulnk      
    4630:	00 00 06    	return    

00004632 <_writeReadAS3993>:
    4632:	00 00 fa    	lnk       #0x0
    4634:	88 9f be    	mov.d     w8, [w15++]
    4636:	8a 1f 78    	mov.w     w10, [w15++]
    4638:	02 05 78    	mov.w     w2, w10
    463a:	03 44 78    	mov.b     w3, w8
    463c:	84 44 78    	mov.b     w4, w9
    463e:	05 04 e0    	cp0.b     w5
    4640:	01 00 32    	bra       Z, 0x4644 <.L14>
    4642:	cd e2 a9    	bclr.b    0x2cd, #0x7

00004644 <.L14>:
    4644:	01 81 fb    	ze        w1, w2
    4646:	80 00 eb    	clr.w     w1
    4648:	c2 fa 07    	rcall     0x3bce <_spiTxRx>
    464a:	08 04 e0    	cp0.b     w8
    464c:	04 00 32    	bra       Z, 0x4656 <.L16>
    464e:	08 81 fb    	ze        w8, w2
    4650:	8a 00 78    	mov.w     w10, w1
    4652:	00 00 eb    	clr.w     w0
    4654:	bc fa 07    	rcall     0x3bce <_spiTxRx>

00004656 <.L16>:
    4656:	09 04 e0    	cp0.b     w9
    4658:	01 00 32    	bra       Z, 0x465c <.L20>
    465a:	cd e2 a8    	bset.b    0x2cd, #0x7

0000465c <.L20>:
    465c:	4f 05 78    	mov.w     [--w15], w10
    465e:	4f 04 be    	mov.d     [--w15], w8
    4660:	00 80 fa    	ulnk      
    4662:	00 00 06    	return    

00004664 <_writeReadAS3993Isr>:
    4664:	00 00 fa    	lnk       #0x0
    4666:	88 9f be    	mov.d     w8, [w15++]
    4668:	02 04 78    	mov.w     w2, w8
    466a:	83 44 78    	mov.b     w3, w9
    466c:	cd e2 a9    	bclr.b    0x2cd, #0x7
    466e:	01 81 fb    	ze        w1, w2
    4670:	80 00 eb    	clr.w     w1
    4672:	ad fa 07    	rcall     0x3bce <_spiTxRx>
    4674:	09 81 fb    	ze        w9, w2
    4676:	88 00 78    	mov.w     w8, w1
    4678:	00 00 eb    	clr.w     w0
    467a:	a9 fa 07    	rcall     0x3bce <_spiTxRx>
    467c:	cd e2 a8    	bset.b    0x2cd, #0x7
    467e:	4f 04 be    	mov.d     [--w15], w8
    4680:	00 80 fa    	ulnk      
    4682:	00 00 06    	return    

00004684 <_setPortDirect>:
    4684:	00 00 fa    	lnk       #0x0
    4686:	83 fa 07    	rcall     0x3b8e <_spiDeinitialize>
    4688:	00 80 fa    	ulnk      
    468a:	00 00 06    	return    

0000468c <_setPortNormal>:
    468c:	00 00 fa    	lnk       #0x0
    468e:	c2 ff 07    	rcall     0x4614 <_spiInit>
    4690:	00 80 fa    	ulnk      
    4692:	00 00 06    	return    
Disassembly of section .dinit:

00004694 <.dinit>:
    4694:	c0 1d 00    	nop       
    4696:	16 00 00    	nop       
    4698:	00 00 00    	nop       
    469a:	d0 12 00    	nop       
    469c:	90 08 00    	nop       
    469e:	00 00 00    	nop       
    46a0:	f8 1d 00    	nop       
    46a2:	04 00 00    	nop       
    46a4:	00 00 00    	nop       
    46a6:	00 1e 00    	nop       
    46a8:	02 00 00    	nop       
    46aa:	00 00 00    	nop       
    46ac:	20 1c 00    	nop       
    46ae:	84 00 00    	nop       
    46b0:	00 00 00    	nop       
    46b2:	d6 1d 00    	nop       
    46b4:	16 00 00    	nop       
    46b6:	02 00 00    	nop       
    46b8:	01 09 02    	call      0x901 <.L2+0x21b>
    46ba:	00 00 00 
    46bc:	00 04 01    	.pword 0x010400
    46be:	04 a4 35    	bra       LT, 0xffff8ec8
    46c0:	0d 00 ac    	btsts.b   0xd, #0x0
    46c2:	3c 0d 00    	nop       
    46c4:	10 27 01    	.pword 0x012710
    46c6:	00 00 00    	nop       
    46c8:	00 08 00    	nop       
    46ca:	d0 0a 00    	nop       
    46cc:	00 00 00    	nop       
    46ce:	60 1b 00    	nop       
    46d0:	c0 00 00    	nop       
    46d2:	02 00 00    	nop       
    46d4:	09 00 02    	call      0x10000009 <__CONFIG1+0xfff540b>
    46d6:	00 10 0b 
    46d8:	01 00 02    	call      0x6c000001 <__CONFIG1+0x6bff5403>
    46da:	00 6c 0a 
    46dc:	00 00 01    	call      w0
    46de:	00 12 11    	subr.w    w2, w0, [w4--]
    46e0:	10 00 10    	subr.w    w0, [w0], w0
    46e2:	00 bc 0c    	bra       OA, 0xffffbee4
    46e4:	04 00 04    	goto      0xdc000004 <__CONFIG1+0xdbff5406>
    46e6:	00 dc 0b 
    46e8:	00 00 03    	.pword 0x030000
    46ea:	00 3c 0e    	bra       SA, 0xbeec
    46ec:	00 00 02    	call      0xf6000000 <__CONFIG1+0xf5ff5402>
    46ee:	00 f6 0e 
    46f0:	02 00 09    	repeat    #0x2
    46f2:	00 9c 0f    	bra       SB, 0xffff7ef4
    46f4:	02 00 09    	repeat    #0x2
    46f6:	00 ac 13    	subr.w    w7, w0, [++w8]
    46f8:	01 00 07    	rcall     0x46fc
    46fa:	00 ba 14    	.pword 0x14ba00
    46fc:	01 00 06    	.pword 0x060001
    46fe:	00 26 15    	subr.w    w10, w0, [--w12]
    4700:	00 00 00    	nop       
    4702:	00 14 0a    	.pword 0x0a1400
    4704:	00 00 05    	retlw.w   #0x0, w0
    4706:	00 72 15    	.pword 0x157200
    4708:	03 00 01    	call      w3
    470a:	00 e8 0a    	.pword 0x0ae800
    470c:	00 00 01    	call      w0
    470e:	00 d0 0a    	.pword 0x0ad000
    4710:	06 00 06    	.pword 0x060006
    4712:	00 aa 0a    	.pword 0x0aaa00
    4714:	00 00 00    	nop       
    4716:	00 14 0a    	.pword 0x0a1400
    4718:	00 00 00    	nop       
    471a:	00 2e 0d    	bra       OB, 0xa31c
    471c:	08 00 08    	do        #0x8, 0xffff7720
    471e:	00 98 0d 
    4720:	01 00 01    	call      w1
    4722:	00 e4 0d    	bra       OB, 0xf24
    4724:	00 00 00    	nop       
    4726:	00 aa 15    	subr.w    w11, w0, [++w4]
    4728:	00 00 00    	nop       
    472a:	00 88 16    	subr.w    w13, w0, [w0]
    472c:	01 00 02    	call      0x54000001 <__CONFIG1+0x53ff5403>
    472e:	00 54 1a 
    4730:	00 00 00    	nop       
    4732:	00 14 0a    	.pword 0x0a1400
    4734:	00 00 00    	nop       
    4736:	00 14 0a    	.pword 0x0a1400
    4738:	00 00 00    	nop       
    473a:	00 14 0a    	.pword 0x0a1400
    473c:	00 00 00    	nop       
    473e:	00 14 0a    	.pword 0x0a1400
    4740:	00 00 00    	nop       
    4742:	00 14 0a    	.pword 0x0a1400
    4744:	00 00 00    	nop       
    4746:	00 14 0a    	.pword 0x0a1400
    4748:	00 00 00    	nop       
    474a:	00 14 0a    	.pword 0x0a1400
    474c:	00 00 00    	nop       
    474e:	00 14 0a    	.pword 0x0a1400
    4750:	00 00 00    	nop       
    4752:	00 14 0a    	.pword 0x0a1400
    4754:	64 1d 00    	nop       
    4756:	36 00 00    	nop       
    4758:	00 00 00    	nop       
    475a:	a4 1c 00    	nop       
    475c:	64 00 00    	nop       
    475e:	00 00 00    	nop       
    4760:	ec 1d 00    	nop       
    4762:	06 00 00    	nop       
    4764:	00 00 00    	nop       
    4766:	f2 1d 00    	nop       
    4768:	06 00 00    	nop       
    476a:	02 00 00    	nop       
    476c:	00 00 01    	call      w0
    476e:	77 7f 00    	nop       
    4770:	9a 1d 00    	nop       
    4772:	26 00 00    	nop       
    4774:	00 00 00    	nop       
    4776:	08 1d 00    	nop       
    4778:	5c 00 00    	nop       
    477a:	00 00 00    	nop       
    477c:	fc 1d 00    	nop       
    477e:	04 00 00    	nop       
    4780:	02 00 00    	nop       
	...
Disassembly of section .text:

00004788 <_bbSetup>:
    4788:	00 00 fa    	lnk       #0x0
    478a:	1f e1 a9    	bclr.b    0x11f, #0x7
    478c:	00 01 eb    	clr.w     w2
    478e:	f2 08 88    	mov.w     w2, 0x11e
    4790:	a2 08 88    	mov.w     w2, 0x114
    4792:	cf 80 de    	asr.w     w0, #0xf, w1
    4794:	c4 09 dd    	sl.w      w1, #0x4, w3
    4796:	cc 00 de    	lsr.w     w0, #0xc, w1
    4798:	81 80 71    	ior.w     w3, w1, w1
    479a:	44 00 dd    	sl.w      w0, #0x4, w0
    479c:	d0 08 88    	mov.w     w0, 0x11a
    479e:	b1 c0 bf    	mov.b     0xb1, WREG
    47a0:	f1 c8 b3    	mov.b     #0x8f, w1
    47a2:	01 40 60    	and.b     w0, w1, w0
    47a4:	00 43 b3    	ior.b     #0x30, w0
    47a6:	b1 e0 b7    	mov.b     WREG, 0xb1
    47a8:	87 60 a9    	bclr.b    0x87, #0x3
    47aa:	97 60 a9    	bclr.b    0x97, #0x3
    47ac:	00 01 fd    	exch      w0, w2
    47ae:	ec fd b7    	mov.b     WREG, 0x1dec
    47b0:	f0 fd b7    	mov.b     WREG, 0x1df0
    47b2:	00 01 fd    	exch      w0, w2
    47b4:	00 80 fa    	ulnk      
    47b6:	00 00 06    	return    

000047b8 <_bbRun>:
    47b8:	00 00 fa    	lnk       #0x0
    47ba:	f0 7d ef    	clr.b     0x1df0
    47bc:	70 ef 88    	mov.w     w0, 0x1dee
    47be:	01 00 78    	mov.w     w1, w0
    47c0:	ec fd b7    	mov.b     WREG, 0x1dec
    47c2:	14 21 ef    	clr.w     0x114
    47c4:	97 60 a8    	bset.b    0x97, #0x3
    47c6:	1f e1 a8    	bset.b    0x11f, #0x7
    47c8:	9e c0 a9    	bclr.b    0x9e, #0x6

000047ca <.L4>:
    47ca:	ec 5d e2    	cp0.b     0x1dec
    47cc:	fe ff 3a    	bra       NZ, 0x47ca <.L4>

000047ce <.L8>:
    47ce:	f0 5d e2    	cp0.b     0x1df0
    47d0:	fe ff 32    	bra       Z, 0x47ce <.L8>
    47d2:	97 60 a9    	bclr.b    0x97, #0x3
    47d4:	9e c0 a8    	bset.b    0x9e, #0x6
    47d6:	1f e1 a9    	bclr.b    0x11f, #0x7
    47d8:	00 80 fa    	ulnk      
    47da:	00 00 06    	return    

000047dc <__T4Interrupt>:
    47dc:	80 9f be    	mov.d     w0, [w15++]
    47de:	82 1f 78    	mov.w     w2, [w15++]
    47e0:	00 00 fa    	lnk       #0x0
    47e2:	ec 5d e2    	cp0.b     0x1dec
    47e4:	18 00 32    	bra       Z, 0x4816 <.L13>
    47e6:	87 60 a9    	bclr.b    0x87, #0x3
    47e8:	71 ef 80    	mov.w     0x1dee, w1
    47ea:	11 40 90    	mov.b     [w1+1], w0
    47ec:	00 40 e9    	dec.b     w0, w0
    47ee:	90 40 98    	mov.b     w0, [w1+1]
    47f0:	72 ef 80    	mov.w     0x1dee, w2
    47f2:	92 40 78    	mov.b     [w2], w1
    47f4:	12 40 90    	mov.b     [w2+1], w0
    47f6:	81 80 fb    	ze        w1, w1
    47f8:	00 00 fb    	se        w0, w0
    47fa:	80 88 de    	asr.w     w1, w0, w1
    47fc:	12 40 90    	mov.b     [w2+1], w0
    47fe:	00 04 e0    	cp0.b     w0
    4800:	03 00 3a    	bra       NZ, 0x4808 <.L15>
    4802:	02 80 e8    	inc2.w    w2, w0
    4804:	70 ef 88    	mov.w     w0, 0x1dee
    4806:	ec 7d ed    	dec.b     0x1dec

00004808 <.L15>:
    4808:	e1 c0 60    	and.b     w1, #0x1, w1
    480a:	81 c0 40    	add.b     w1, w1, w1
    480c:	c4 c2 bf    	mov.b     0x2c4, WREG
    480e:	00 14 a1    	bclr.b    w0, #0x1
    4810:	01 40 70    	ior.b     w0, w1, w0
    4812:	c4 e2 b7    	mov.b     WREG, 0x2c4
    4814:	04 00 37    	bra       0x481e <.L18>

00004816 <.L13>:
    4816:	c4 22 a8    	bset.b    0x2c4, #0x1
    4818:	87 60 a9    	bclr.b    0x87, #0x3
    481a:	10 c0 b3    	mov.b     #0x1, w0
    481c:	f0 fd b7    	mov.b     WREG, 0x1df0

0000481e <.L18>:
    481e:	00 80 fa    	ulnk      
    4820:	4f 01 78    	mov.w     [--w15], w2
    4822:	4f 00 be    	mov.d     [--w15], w0
    4824:	00 40 06    	retfie    

00004826 <_i2cDeserialiseConfig>:
    4826:	00 00 fa    	lnk       #0x0
    4828:	00 80 fa    	ulnk      
    482a:	00 00 06    	return    

0000482c <_i2cInitialize>:
    482c:	00 00 fa    	lnk       #0x0
    482e:	10 00 20    	mov.w     #0x1, w0
    4830:	00 80 fa    	ulnk      
    4832:	00 00 06    	return    

00004834 <_i2cRxTx>:
    4834:	00 00 fa    	lnk       #0x0
    4836:	10 00 20    	mov.w     #0x1, w0
    4838:	00 80 fa    	ulnk      
    483a:	00 00 06    	return    
    483c:	00 00 fa    	lnk       #0x0
    483e:	00 80 fa    	ulnk      
    4840:	00 00 06    	return    
    4842:	00 00 fa    	lnk       #0x0
    4844:	10 00 20    	mov.w     #0x1, w0
    4846:	00 80 fa    	ulnk      
    4848:	00 00 06    	return    
    484a:	00 00 fa    	lnk       #0x0
    484c:	10 00 20    	mov.w     #0x1, w0
    484e:	00 80 fa    	ulnk      
    4850:	00 00 06    	return    
    4852:	00 00 fa    	lnk       #0x0
    4854:	10 00 20    	mov.w     #0x1, w0
    4856:	00 80 fa    	ulnk      
    4858:	00 00 06    	return    
    485a:	00 00 fa    	lnk       #0x0
    485c:	80 98 28    	mov.w     #0x8988, w0
    485e:	00 80 fa    	ulnk      
    4860:	00 00 06    	return    
    4862:	00 00 fa    	lnk       #0x0
    4864:	10 00 20    	mov.w     #0x1, w0
    4866:	00 80 fa    	ulnk      
    4868:	00 00 06    	return    
    486a:	00 00 fa    	lnk       #0x0
    486c:	c2 ef 80    	mov.w     0x1df8, w2
    486e:	d3 ef 80    	mov.w     0x1dfa, w3
    4870:	61 01 41    	add.w     w2, #0x1, w2
    4872:	e0 81 49    	addc.w    w3, #0x0, w3
    4874:	c2 ef 88    	mov.w     w2, 0x1df8
    4876:	d3 ef 88    	mov.w     w3, 0x1dfa
    4878:	00 00 eb    	clr.w     w0
    487a:	80 08 78    	mov.w     w0, [w1]
    487c:	00 80 fa    	ulnk      
    487e:	00 00 06    	return    
    4880:	00 00 fa    	lnk       #0x0
    4882:	10 00 20    	mov.w     #0x1, w0
    4884:	00 80 fa    	ulnk      
    4886:	00 00 06    	return    
    4888:	00 00 fa    	lnk       #0x0
    488a:	10 00 20    	mov.w     #0x1, w0
    488c:	00 80 fa    	ulnk      
    488e:	00 00 06    	return    

00004890 <_applSpiActivateSEN>:
    4890:	00 00 fa    	lnk       #0x0
    4892:	00 80 fa    	ulnk      
    4894:	00 00 06    	return    

00004896 <_applSpiDeactivateSEN>:
    4896:	00 00 fa    	lnk       #0x0
    4898:	00 80 fa    	ulnk      
    489a:	00 00 06    	return    

0000489c <_spiActivateSEN>:
    489c:	00 00 fa    	lnk       #0x0
    489e:	00 80 fa    	ulnk      
    48a0:	00 00 06    	return    

000048a2 <_spiDeactivateSEN>:
    48a2:	00 00 fa    	lnk       #0x0
    48a4:	00 80 fa    	ulnk      
    48a6:	00 00 06    	return    

000048a8 <_ioLedOn>:
    48a8:	00 00 fa    	lnk       #0x0
    48aa:	00 80 fa    	ulnk      
    48ac:	00 00 06    	return    

000048ae <_ioLedOff>:
    48ae:	00 00 fa    	lnk       #0x0
    48b0:	00 80 fa    	ulnk      
    48b2:	00 00 06    	return    

000048b4 <_slowTimerStart>:
    48b4:	00 00 fa    	lnk       #0x0
    48b6:	13 e1 a9    	bclr.b    0x113, #0x7
    48b8:	10 00 20    	mov.w     #0x1, w0
    48ba:	00 f0 88    	mov.w     w0, 0x1e00
    48bc:	0a 21 ef    	clr.w     0x10a
    48be:	85 00 a9    	bclr.b    0x85, #0x0
    48c0:	95 00 a8    	bset.b    0x95, #0x0
    48c2:	13 e1 a8    	bset.b    0x113, #0x7
    48c4:	00 80 fa    	ulnk      
    48c6:	00 00 06    	return    

000048c8 <_slowTimerValue>:
    48c8:	00 00 fa    	lnk       #0x0
    48ca:	00 f0 80    	mov.w     0x1e00, w0
    48cc:	00 80 fa    	ulnk      
    48ce:	00 00 06    	return    

000048d0 <_slowTimerStop>:
    48d0:	00 00 fa    	lnk       #0x0
    48d2:	95 00 a9    	bclr.b    0x95, #0x0
    48d4:	13 e1 a9    	bclr.b    0x113, #0x7
    48d6:	00 80 fa    	ulnk      
    48d8:	00 00 06    	return    

000048da <_timerInit>:
    48da:	00 00 fa    	lnk       #0x0
    48dc:	12 21 ef    	clr.w     0x112
    48de:	13 e1 a9    	bclr.b    0x113, #0x7
    48e0:	12 c1 bf    	mov.b     0x112, WREG
    48e2:	00 44 a1    	bclr.b    w0, #0x4
    48e4:	00 54 a0    	bset.b    w0, #0x5
    48e6:	12 e1 b7    	mov.b     WREG, 0x112
    48e8:	a8 c0 bf    	mov.b     0xa8, WREG
    48ea:	81 cf b3    	mov.b     #0xf8, w1
    48ec:	01 40 60    	and.b     w0, w1, w0
    48ee:	00 14 a0    	bset.b    w0, #0x1
    48f0:	a8 e0 b7    	mov.b     WREG, 0xa8
    48f2:	40 9c 20    	mov.w     #0x9c4, w0
    48f4:	70 08 88    	mov.w     w0, 0x10e
    48f6:	00 80 fa    	ulnk      
    48f8:	00 00 06    	return    

000048fa <__T3Interrupt>:
    48fa:	80 1f 78    	mov.w     w0, [w15++]
    48fc:	00 00 fa    	lnk       #0x0
    48fe:	85 00 a9    	bclr.b    0x85, #0x0
    4900:	a0 00 20    	mov.w     #0xa, w0
    4902:	00 3e b4    	add.w     0x1e00
    4904:	00 80 fa    	ulnk      
    4906:	4f 00 78    	mov.w     [--w15], w0
    4908:	00 40 06    	retfie    

0000490a <_calcCrc16>:
    490a:	00 00 fa    	lnk       #0x0
    490c:	00 02 be    	mov.d     w0, w4
    490e:	00 80 eb    	setm.w    w0
    4910:	01 00 e0    	cp0.w     w1
    4912:	0f 00 34    	bra       LE, 0x4932 <.L4>
    4914:	80 01 eb    	clr.w     w3
    4916:	00 80 eb    	setm.w    w0
    4918:	f7 0f 20    	mov.w     #0xff, w7
    491a:	06 6f 28    	mov.w     #0x86f0, w6

0000491c <.L5>:
    491c:	48 01 dd    	sl.w      w0, #0x8, w2
    491e:	48 00 de    	lsr.w     w0, #0x8, w0
    4920:	b4 00 fb    	se        [w4++], w1
    4922:	01 00 68    	xor.w     w0, w1, w0
    4924:	07 00 60    	and.w     w0, w7, w0
    4926:	00 00 40    	add.w     w0, w0, w0
    4928:	60 00 7b    	mov.w     [w0+w6], w0
    492a:	00 00 69    	xor.w     w2, w0, w0
    492c:	83 01 e8    	inc.w     w3, w3
    492e:	83 8f 52    	sub.w     w5, w3, [w15]
    4930:	f5 ff 3a    	bra       NZ, 0x491c <.L5>

00004932 <.L4>:
    4932:	00 80 fa    	ulnk      
    4934:	00 00 06    	return    
Disassembly of section .init.delay32:

00004936 <___delay32>:
    4936:	f0 3f b1    	sub.w     #0x3ff, w0
    4938:	01 80 b1    	subb.w    #0x0, w1
    493a:	06 00 35    	bra       LT, 0x4948 <L21>

0000493c <L41>:
    493c:	ee 03 09    	repeat    #0x3ee
    493e:	00 00 00    	nop       
    4940:	40 3f b1    	sub.w     #0x3f4, w0
    4942:	01 80 b1    	subb.w    #0x0, w1
    4944:	fb ff 3d    	bra       GE, 0x493c <L41>
    4946:	10 00 b0    	add.w     #0x1, w0

00004948 <L21>:
    4948:	20 3f b0    	add.w     #0x3f2, w0
    494a:	02 00 35    	bra       LT, 0x4950 <L31>
    494c:	00 80 09    	repeat    w0
    494e:	00 00 00    	nop       

00004950 <L31>:
    4950:	00 00 06    	return    
